(lp0
(lp1
F-7.580300331115723
aF-2.614755153656006
aa(lp2
F-3.0952253341674805
aF-1.117555022239685
aa(lp3
F-9.635327339172363
aF1.642183780670166
aa(lp4
F-5.2080769538879395
aF-2.1560354232788086
aa(lp5
F-9.547698020935059
aF2.588531732559204
aa(lp6
F-8.003561019897461
aF-0.3261808454990387
aa(lp7
F-8.91228199005127
aF2.6017680168151855
aa(lp8
F-9.653736114501953
aF-0.1917702555656433
aa(lp9
F-3.946535348892212
aF-0.7732193470001221
aa(lp10
F-6.844663143157959
aF1.2632979154586792
aa(lp11
F-5.665625095367432
aF-0.20739871263504028
aa(lp12
F-9.682331085205078
aF-0.18103766441345215
aa(lp13
F-8.174280166625977
aF2.973893404006958
aa(lp14
F-6.691585540771484
aF0.53969806432724
aa(lp15
F-6.053774356842041
aF-1.1701676845550537
aa(lp16
F-8.29215145111084
aF0.6186435222625732
aa(lp17
F-9.85671329498291
aF0.3626217842102051
aa(lp18
F-7.293920516967773
aF-0.02323702536523342
aa(lp19
F-9.683046340942383
aF0.01585724763572216
aa(lp20
F-8.956315040588379
aF2.647632122039795
aa(lp21
F-7.059014320373535
aF3.05964994430542
aa(lp22
F-6.7338762283325195
aF1.8374954462051392
aa(lp23
F-4.380433082580566
aF-2.2054152488708496
aa(lp24
F-4.261732578277588
aF0.266353040933609
aa(lp25
F-4.230484962463379
aF-1.528080940246582
aa(lp26
F-4.482925891876221
aF-1.54248046875
aa(lp27
F-4.048862934112549
aF-1.0219722986221313
aa(lp28
F-6.871635913848877
aF3.0621957778930664
aa(lp29
F-4.93035364151001
aF2.1342451572418213
aa(lp30
F-7.417730808258057
aF-1.2791136503219604
aa(lp31
F-6.337466239929199
aF-1.7601873874664307
aa(lp32
F-9.158570289611816
aF2.4927306175231934
aa(lp33
F-7.542656898498535
aF2.3948774337768555
aa(lp34
F-5.287092685699463
aF-1.9690841436386108
aa(lp35
F-8.952372550964355
aF2.121440887451172
aa(lp36
F-6.772128582000732
aF-2.7002358436584473
aa(lp37
F-5.708640098571777
aF1.5373941659927368
aa(lp38
F-6.6435041427612305
aF0.5171748399734497
aa(lp39
F-4.7629499435424805
aF-2.7614829540252686
aa(lp40
F-7.16502571105957
aF3.186521291732788
aa(lp41
F-7.809077262878418
aF1.0768911838531494
aa(lp42
F-6.0566582679748535
aF3.027615547180176
aa(lp43
F-3.7067248821258545
aF-2.484381675720215
aa(lp44
F-4.296293258666992
aF1.5244070291519165
aa(lp45
F-6.031929969787598
aF2.928098440170288
aa(lp46
F-4.935462474822998
aF1.834171175956726
aa(lp47
F-6.42923641204834
aF1.243101954460144
aa(lp48
F-8.20561408996582
aF0.20834659039974213
aa(lp49
F-8.21046257019043
aF0.5093470811843872
aa(lp50
F-5.352242469787598
aF0.26544007658958435
aa(lp51
F-4.226675510406494
aF-1.8813982009887695
aa(lp52
F-8.716483116149902
aF-1.5212465524673462
aa(lp53
F-5.543833255767822
aF-2.645395278930664
aa(lp54
F-5.570077896118164
aF-0.5962629318237305
aa(lp55
F-8.044511795043945
aF-1.4261726140975952
aa(lp56
F-5.365771293640137
aF-2.9117772579193115
aa(lp57
F-4.586239337921143
aF1.7865245342254639
aa(lp58
F-5.16862678527832
aF-1.6125004291534424
aa(lp59
F-8.744525909423828
aF-1.6272603273391724
aa(lp60
F-4.227624893188477
aF-2.719419240951538
aa.