(lp0
(lp1
F2.601444721221924
aF-2.495250701904297
aa(lp2
F3.6052749156951904
aF-4.078107833862305
aa(lp3
F4.4913649559021
aF-1.0636745691299438
aa(lp4
F4.314754962921143
aF-3.49721622467041
aa(lp5
F4.62952995300293
aF0.03138482943177223
aa(lp6
F5.1674485206604
aF0.4785623252391815
aa(lp7
F0.5308775305747986
aF-0.45527932047843933
aa(lp8
F2.3595058917999268
aF1.2250458002090454
aa(lp9
F6.070114612579346
aF-2.5151379108428955
aa(lp10
F2.2374331951141357
aF-0.8092390894889832
aa(lp11
F3.5183587074279785
aF-1.3780508041381836
aa(lp12
F2.279967784881592
aF1.2580132484436035
aa(lp13
F5.4106292724609375
aF0.7976121306419373
aa(lp14
F1.7498940229415894
aF-1.5429677963256836
aa(lp15
F4.787471294403076
aF-1.8700557947158813
aa(lp16
F1.5093632936477661
aF0.454800009727478
aa(lp17
F2.2518954277038574
aF1.5703856945037842
aa(lp18
F2.0081498622894287
aF-0.0926528051495552
aa(lp19
F4.670900821685791
aF-2.9651052951812744
aa(lp20
F2.201528549194336
aF1.3313578367233276
aa(lp21
F5.128312110900879
aF0.20261257886886597
aa(lp22
F5.912984371185303
aF-0.23225514590740204
aa(lp23
F2.7452971935272217
aF-0.5015696287155151
aa(lp24
F5.242611885070801
aF-3.102386951446533
aa(lp25
F1.4773848056793213
aF-1.7777166366577148
aa(lp26
F5.1678900718688965
aF-2.6435904502868652
aa(lp27
F5.652334213256836
aF-2.6741783618927
aa(lp28
F6.231666088104248
aF-0.17299342155456543
aa(lp29
F4.5146803855896
aF1.302964687347412
aa(lp30
F4.1038312911987305
aF-0.6117846965789795
aa(lp31
F4.1007513999938965
aF-2.469611167907715
aa(lp32
F5.048282146453857
aF0.33656254410743713
aa(lp33
F5.289403915405273
aF-0.4592369496822357
aa(lp34
F4.44066047668457
aF-3.386875867843628
aa(lp35
F3.0913619995117188
aF-2.6788675785064697
aa(lp36
F3.1373252868652344
aF-0.12633273005485535
aa(lp37
F2.2214133739471436
aF-0.9948440194129944
aa(lp38
F5.312984466552734
aF-3.1623311042785645
aa(lp39
F6.013594627380371
aF-0.13122591376304626
aa(lp40
F1.1564075946807861
aF-0.3616700768470764
aa(lp41
F6.038595676422119
aF-1.2004164457321167
aa(lp42
F5.328514575958252
aF-3.9338629245758057
aa(lp43
F4.044351100921631
aF1.8189735412597656
aa(lp44
F6.059312343597412
aF-1.2006443738937378
aa(lp45
F4.27795934677124
aF1.4691184759140015
aa(lp46
F2.2975337505340576
aF-1.0834949016571045
aa(lp47
F0.909981906414032
aF0.05683168023824692
aa(lp48
F1.1399613618850708
aF0.20974960923194885
aa(lp49
F3.7475924491882324
aF-1.4121437072753906
aa(lp50
F2.8924641609191895
aF0.6181962490081787
aa(lp51
F3.9593236446380615
aF-2.9647417068481445
aa(lp52
F3.9004831314086914
aF-0.02903982438147068
aa(lp53
F4.3263068199157715
aF-3.0738141536712646
aa(lp54
F4.082540512084961
aF1.7542963027954102
aa(lp55
F4.5520339012146
aF-3.814239025115967
aa(lp56
F3.184056282043457
aF1.0022766590118408
aa(lp57
F5.501163482666016
aF-3.633389472961426
aa.