(lp0
(lp1
F-0.14484260976314545
aF0.015433384105563164
aF0.016263017430901527
aF0.05413368344306946
aF-0.010908018797636032
aF0.09394239634275436
aF0.017671462148427963
aF0.013411980122327805
aF0.0647217333316803
aF-0.24104982614517212
aF-0.09783570468425751
aF-0.08533672988414764
aF0.05981599912047386
aF-0.04512637108564377
aF-0.06681191921234131
aF0.023083163425326347
aF-0.0933077484369278
aF-0.004666254390031099
aF0.15343794226646423
aF-0.15759967267513275
aF-0.015914710238575935
aF-0.07277186214923859
aF-0.011396621353924274
aF-0.03272984176874161
aF0.025672895833849907
aF0.007298613432794809
aF-0.018837910145521164
aF-0.07713377475738525
aF-0.017215827479958534
aF0.039277881383895874
aF-0.07185867428779602
aF-0.04556401073932648
aF-0.018286345526576042
aF-0.05876971781253815
aF-0.05489609017968178
aF0.04448222741484642
aF-0.018099023029208183
aF-0.014620460569858551
aF0.16192851960659027
aF-0.012936688959598541
aF0.07771546393632889
aF0.08889924734830856
aF-0.048708900809288025
aF-0.008773935958743095
aF0.027433615177869797
aF-0.004212833940982819
aF-0.011876553297042847
aF-0.0010420840699225664
aF-0.05285080522298813
aF-0.02416123077273369
aF-0.004184870980679989
aF0.07872235774993896
aF0.005052895750850439
aF0.005709486082196236
aF-0.020751701667904854
aF0.023185644298791885
aF0.04284796491265297
aF-0.09674182534217834
aF0.014910309575498104
aF0.0635400339961052
aF-0.007970938459038734
aF-0.015720635652542114
aF-0.013797950930893421
aF0.23371876776218414
aF0.16454541683197021
aF-0.05379490181803703
aF0.03027956560254097
aF-0.02842829003930092
aF0.15494754910469055
aF0.10914469510316849
aF-0.09802433848381042
aF-0.1138072982430458
aF0.08962361514568329
aF0.011104282923042774
aF0.00988065917044878
aF0.0387662798166275
aF-0.08347975462675095
aF-0.03800490126013756
aF0.1543821394443512
aF-0.08219988644123077
aF-0.18280532956123352
aF0.027954351156949997
aF-0.06575934588909149
aF0.02598360739648342
aF-0.04535772278904915
aF-0.08912364393472672
aF0.012043388560414314
aF-0.05251876637339592
aF0.059432607144117355
aF0.020374473184347153
aF0.028145136311650276
aF-0.1325470209121704
aF-0.15703748166561127
aF-0.10882777720689774
aF0.060571033507585526
aF0.0035153571516275406
aF-0.2503374516963959
aF0.046813398599624634
aF0.11076652258634567
aF-0.019353123381733894
aF-0.34597089886665344
aF0.13778331875801086
aF0.029559582471847534
aF-0.03851211071014404
aF0.03478935360908508
aF-0.10340691357851028
aF0.15107320249080658
aF0.0376693420112133
aF-0.08187104016542435
aF-0.003159813117235899
aF-0.10886508226394653
aF-0.16191676259040833
aF-0.16541212797164917
aF0.04722844064235687
aF0.05971763655543327
aF0.01835770346224308
aF-0.035665933042764664
aF-0.09029491245746613
aF-0.04084498807787895
aF0.04374772682785988
aF-0.028958888724446297
aF-0.14406810700893402
aF0.0066341497004032135
aF0.12492946535348892
aF-0.12728947401046753
aF0.030673343688249588
aF0.08451736718416214
aF-0.034487828612327576
aa(lp2
F-0.14791153371334076
aF0.007023574318736792
aF0.010628617368638515
aF-0.09309693425893784
aF-0.03603896498680115
aF-0.18097694218158722
aF-0.05136650800704956
aF0.07965092360973358
aF-0.03641107678413391
aF0.08956082910299301
aF0.2827572226524353
aF0.006210138089954853
aF-0.07386700063943863
aF-0.04617909714579582
aF0.02334398776292801
aF0.03281267359852791
aF-0.0040931846015155315
aF0.06481941044330597
aF0.08668375015258789
aF-0.06475438922643661
aF0.049681976437568665
aF0.06220296397805214
aF0.41364970803260803
aF0.04960094019770622
aF-0.002450285479426384
aF0.020370107144117355
aF-0.022916357964277267
aF0.021238386631011963
aF0.019687093794345856
aF-0.020301874727010727
aF-0.04653991013765335
aF-0.04723961278796196
aF-0.03588465601205826
aF0.03253975138068199
aF-0.08532043546438217
aF0.03288203105330467
aF0.07669002562761307
aF-0.018747026100754738
aF0.00455791549757123
aF-0.047659870237112045
aF0.00897118542343378
aF-0.024683937430381775
aF0.09503094851970673
aF0.09725400060415268
aF0.04617937654256821
aF-0.025197280570864677
aF-0.15694153308868408
aF-0.018009886145591736
aF0.06421869248151779
aF0.021692903712391853
aF-0.011295506730675697
aF0.12535230815410614
aF0.07776951044797897
aF-0.04889785125851631
aF-0.04633418470621109
aF0.018613243475556374
aF-0.030649228021502495
aF-0.20228901505470276
aF0.002864598762243986
aF0.09250466525554657
aF-0.016401343047618866
aF-0.06649810075759888
aF0.053699418902397156
aF0.14971870183944702
aF0.007181704975664616
aF0.12152750790119171
aF-0.1996510922908783
aF-0.08465540409088135
aF-0.11512328684329987
aF0.09836924821138382
aF-0.04785819351673126
aF-0.07544656842947006
aF0.07898499816656113
aF0.007569152861833572
aF-0.009309983812272549
aF-0.014693117700517178
aF-0.08601260185241699
aF0.026026934385299683
aF0.06989776343107224
aF0.003136873710900545
aF-0.11189784854650497
aF-0.10367979109287262
aF-0.061653319746255875
aF-0.03847978264093399
aF0.004599053878337145
aF-0.006066216621547937
aF-0.13032421469688416
aF-0.03303278610110283
aF0.02138114534318447
aF-0.09630315750837326
aF-0.03402021899819374
aF0.006818859837949276
aF0.002530330093577504
aF0.010940343141555786
aF-0.11180103570222855
aF-0.05378565937280655
aF0.14339496195316315
aF0.030041538178920746
aF0.008803187869489193
aF0.0942377969622612
aF0.24240535497665405
aF-0.05850081145763397
aF0.06296971440315247
aF-0.07932086288928986
aF-0.05785829573869705
aF-0.05774272233247757
aF0.006639422848820686
aF0.044468577951192856
aF-0.05153420940041542
aF-0.02941293828189373
aF0.010646946728229523
aF0.13494831323623657
aF-0.03800026327371597
aF-0.006539611145853996
aF0.002657866571098566
aF-0.027905164286494255
aF0.03733779117465019
aF0.02999432571232319
aF-0.043526776134967804
aF0.04382767900824547
aF0.011363917961716652
aF-0.03708662837743759
aF-0.010101621970534325
aF-0.3227046728134155
aF-0.038575828075408936
aF0.06159696355462074
aF-0.011266150511801243
aF0.09462094306945801
aa(lp3
F-0.17840848863124847
aF0.10322150588035583
aF-0.0974111407995224
aF-0.07650122046470642
aF-0.02940688095986843
aF-0.004158639349043369
aF-0.00022762271692045033
aF-0.08745478838682175
aF0.06930729001760483
aF0.18564634025096893
aF-0.17734476923942566
aF0.027886033058166504
aF-0.007859176024794579
aF0.085939422249794
aF-0.0699111819267273
aF0.061169516295194626
aF-0.15364985167980194
aF0.17368341982364655
aF0.0169683825224638
aF0.06251853704452515
aF-0.05442841351032257
aF-0.1324489861726761
aF0.09030940383672714
aF0.004797898232936859
aF-0.04318350926041603
aF0.02394661121070385
aF0.025712311267852783
aF0.09463055431842804
aF0.05499079450964928
aF0.03150259330868721
aF-0.07973231375217438
aF-0.10655266046524048
aF-0.020054882392287254
aF-0.01655798964202404
aF-0.15007571876049042
aF-0.1004381999373436
aF0.10237149894237518
aF-0.05372355133295059
aF-0.05151892825961113
aF0.11807145923376083
aF-0.045119863003492355
aF0.0013229981996119022
aF-0.04730133339762688
aF0.06977570801973343
aF0.014182277955114841
aF-0.0847879946231842
aF0.07016631215810776
aF-0.06072920933365822
aF0.02499554492533207
aF0.017455672845244408
aF0.024522338062524796
aF-0.07112855464220047
aF-0.03997279331088066
aF-0.0017321258783340454
aF0.12089983373880386
aF0.0591823011636734
aF0.13986437022686005
aF-0.01987161673605442
aF-0.0878199115395546
aF-0.02586694061756134
aF0.07662848383188248
aF0.10070426017045975
aF-0.11662345379590988
aF0.1800922453403473
aF-0.32574379444122314
aF0.03344865143299103
aF-0.011373646557331085
aF-0.014723976142704487
aF-0.08413007110357285
aF0.05353866517543793
aF-0.01163072045892477
aF0.12204331159591675
aF0.041192084550857544
aF-0.08610878139734268
aF0.058102890849113464
aF-0.002350514754652977
aF-0.02681661769747734
aF0.001035229885019362
aF-0.09629344940185547
aF-0.006495555397123098
aF-0.06791631877422333
aF0.030026018619537354
aF0.05633575841784477
aF-0.015321155078709126
aF0.004635963588953018
aF0.09133071452379227
aF-0.06431810557842255
aF0.034909937530756
aF0.09820062667131424
aF0.14199776947498322
aF0.05308442562818527
aF0.06837406009435654
aF0.02104002982378006
aF0.10378116369247437
aF0.06464199721813202
aF0.038349658250808716
aF-0.2339916229248047
aF-0.049338288605213165
aF-0.014443470165133476
aF-0.016051646322011948
aF-0.23949965834617615
aF-0.006701241247355938
aF-0.04762842506170273
aF-0.0866023525595665
aF0.08719231933355331
aF0.1276334822177887
aF0.13826163113117218
aF0.020882120355963707
aF0.03616340458393097
aF0.0647265762090683
aF0.1392703503370285
aF-0.019091695547103882
aF0.1395786851644516
aF0.012464476749300957
aF-0.03714648261666298
aF-0.056231942027807236
aF-0.04249442741274834
aF0.12774033844470978
aF0.15839381515979767
aF0.00785007607191801
aF-0.030614962801337242
aF0.06721001863479614
aF-0.004079610574990511
aF0.14355525374412537
aF0.03707234561443329
aF0.002153238048776984
aF-0.002544490620493889
aF0.01479535736143589
aa(lp4
F-0.16996890306472778
aF0.03717127442359924
aF0.10209903866052628
aF-0.07822248339653015
aF0.04680219665169716
aF-0.21769985556602478
aF-0.12193362414836884
aF-0.04824965447187424
aF-0.00980438943952322
aF0.10839790850877762
aF-0.08034802973270416
aF0.050726596266031265
aF-0.15274396538734436
aF0.20938755571842194
aF0.049285437911748886
aF-0.0006873031379655004
aF-0.015297208912670612
aF-0.037737198173999786
aF-0.13549673557281494
aF-0.11526710540056229
aF-0.016144534572958946
aF0.03774408623576164
aF0.06418614834547043
aF0.11619819700717926
aF-0.029679782688617706
aF-0.10689757019281387
aF0.002964668907225132
aF0.04510533809661865
aF0.11700843274593353
aF0.1401718109846115
aF-0.01452665776014328
aF0.014982899650931358
aF0.025202380493283272
aF-0.08164239674806595
aF0.10569532215595245
aF-0.0184627752751112
aF0.013834672048687935
aF0.08938433974981308
aF0.05752907320857048
aF-0.09357620030641556
aF0.02012106589972973
aF-0.09265892952680588
aF-0.011148320510983467
aF-0.08034908771514893
aF0.03638506680727005
aF-0.03459980711340904
aF0.007365781348198652
aF0.04613832011818886
aF0.06275895237922668
aF0.076451875269413
aF0.026689527556300163
aF0.012823223136365414
aF0.06772037595510483
aF0.14555875957012177
aF-0.0734211727976799
aF-0.01051236130297184
aF-0.02549448423087597
aF-0.09926892071962357
aF-0.15531300008296967
aF0.129255473613739
aF-0.055159393697977066
aF0.060470473021268845
aF0.1433950662612915
aF-0.04056904464960098
aF0.016168760135769844
aF-0.0811958983540535
aF0.0973292663693428
aF-0.12052633613348007
aF0.037336815148591995
aF0.129868745803833
aF0.07709389925003052
aF-0.04791590943932533
aF0.17126543819904327
aF0.07167617231607437
aF0.0878218337893486
aF0.05442577227950096
aF0.28124672174453735
aF-0.19372183084487915
aF-0.031712885946035385
aF0.05587407201528549
aF-0.041854146867990494
aF0.01407934445887804
aF-0.018048396334052086
aF0.013673185370862484
aF0.06914304941892624
aF0.0695590078830719
aF0.12405148148536682
aF-0.07689889520406723
aF-0.14502061903476715
aF-0.09414798021316528
aF0.12120360881090164
aF-0.030610309913754463
aF-0.031014490872621536
aF-0.15477871894836426
aF-0.06512133777141571
aF-0.15025679767131805
aF0.1713615357875824
aF0.10377521067857742
aF0.019733412191271782
aF-0.06209982559084892
aF0.14189763367176056
aF-0.017842749133706093
aF0.031510040163993835
aF-0.01761692203581333
aF-0.029851289466023445
aF0.04856540635228157
aF-0.036910802125930786
aF0.04904528707265854
aF-0.10216107964515686
aF-0.008070159703493118
aF-0.12423478811979294
aF0.0649137869477272
aF-0.1289689838886261
aF0.033919643610715866
aF-0.009822807274758816
aF-0.0763014703989029
aF-0.06579224765300751
aF0.05627834051847458
aF0.04087361320853233
aF0.035233501344919205
aF-0.010956954210996628
aF0.11141408234834671
aF-0.013659385964274406
aF-0.005204488523304462
aF-0.07682632654905319
aF-0.05772925913333893
aF0.003992934245616198
aF-0.01932387799024582
aa(lp5
F0.06812969595193863
aF-0.0208547655493021
aF0.032799653708934784
aF-0.0403633639216423
aF-0.041333917528390884
aF0.21373715996742249
aF0.05891105532646179
aF0.08161494135856628
aF0.040693655610084534
aF-0.05072870850563049
aF0.08419622480869293
aF0.01635017804801464
aF0.07536102831363678
aF0.00971190631389618
aF-0.13712316751480103
aF0.12115272134542465
aF-0.056924305856227875
aF-0.06830677390098572
aF0.08180104196071625
aF-0.1396740972995758
aF-0.08710554987192154
aF0.09319411218166351
aF-0.00757818715646863
aF-0.03883854299783707
aF-0.0075255329720675945
aF0.015959760174155235
aF0.01973365806043148
aF-0.029814336448907852
aF-0.1116686537861824
aF0.06054261699318886
aF0.0027626724913716316
aF-0.1038925051689148
aF0.04516080021858215
aF0.008085844106972218
aF0.0031915479339659214
aF-0.061172690242528915
aF-0.06479320675134659
aF-0.0413772277534008
aF0.02596679888665676
aF0.1118578240275383
aF0.0037080878391861916
aF0.006815770640969276
aF-0.05652673542499542
aF0.009873374365270138
aF0.22422826290130615
aF-0.012293125502765179
aF0.18244755268096924
aF0.057235829532146454
aF0.02858956903219223
aF-0.013018202967941761
aF0.0030965718906372786
aF-0.044356293976306915
aF-0.03539106994867325
aF0.09491302073001862
aF-0.05533122643828392
aF-0.07152166217565536
aF-0.0098029263317585
aF-0.0009547826484777033
aF-0.19594043493270874
aF0.018456174060702324
aF0.04997453838586807
aF0.05918518081307411
aF-0.180288627743721
aF-0.0889633372426033
aF-0.2564634084701538
aF-0.04545766860246658
aF-0.015526452101767063
aF-0.02395673654973507
aF0.12206622958183289
aF0.03957406431436539
aF0.06394974887371063
aF-0.0469980463385582
aF0.08710914850234985
aF-0.03732787072658539
aF0.12086382508277893
aF-0.08321487903594971
aF-0.00574248842895031
aF-0.05601447448134422
aF-0.028369221836328506
aF-0.025322075933218002
aF0.08917661011219025
aF0.04648569971323013
aF-0.11019665002822876
aF0.12636087834835052
aF0.08080678433179855
aF-0.008797313086688519
aF0.1304754614830017
aF-0.06288866698741913
aF-0.06073407083749771
aF0.0889233648777008
aF0.09837693721055984
aF-0.11265557259321213
aF-0.07509568333625793
aF0.24799507856369019
aF-0.09474283456802368
aF0.05036493390798569
aF-0.20956145226955414
aF0.05503152683377266
aF0.23080772161483765
aF-0.1711183339357376
aF0.11493625491857529
aF0.1873360127210617
aF0.013761737383902073
aF0.028537308797240257
aF0.055033616721630096
aF-0.029415469616651535
aF0.07842762768268585
aF-0.1591961532831192
aF0.07096226513385773
aF0.05972127988934517
aF0.10316752642393112
aF0.11967726796865463
aF0.06330236792564392
aF0.014910951256752014
aF-0.030280860140919685
aF-0.0286045391112566
aF0.002782888012006879
aF0.039633747190237045
aF-0.03710966184735298
aF-0.02106391452252865
aF0.06341825425624847
aF0.030537903308868408
aF0.07844278961420059
aF0.034325551241636276
aF-0.07269258797168732
aF0.0034339739941060543
aF0.006162423640489578
aF0.04131121560931206
aa(lp6
F0.08117013424634933
aF-0.025536946952342987
aF0.10957838594913483
aF-0.21743053197860718
aF-0.016334589570760727
aF-0.010152929462492466
aF-0.04724550247192383
aF-0.02533736079931259
aF-0.03318394348025322
aF-0.11111145466566086
aF-0.11091578751802444
aF-0.020914042368531227
aF-0.15670320391654968
aF-0.03529736399650574
aF-0.004507078323513269
aF-0.06365037709474564
aF0.08573581278324127
aF-0.06672239303588867
aF-0.0856873095035553
aF-0.05114990100264549
aF-0.057477906346321106
aF0.03901786357164383
aF0.01637253537774086
aF-0.047915611416101456
aF-0.03259337693452835
aF0.022043606266379356
aF-0.006673705298453569
aF0.023313213139772415
aF0.04597768932580948
aF-0.010775057598948479
aF0.007773258723318577
aF0.0030528756324201822
aF-0.036092422902584076
aF-0.07859388738870621
aF0.16276013851165771
aF0.03519080579280853
aF0.036643821746110916
aF0.023707570508122444
aF-0.08711177110671997
aF0.1022929847240448
aF-0.03495059162378311
aF-0.0644700676202774
aF0.005638819187879562
aF0.11817284673452377
aF-0.07840069383382797
aF0.008889258839190006
aF0.006357899866998196
aF-0.004052594304084778
aF-0.03774401172995567
aF-0.0016061755595728755
aF0.004105772357434034
aF0.017705194652080536
aF0.03945183753967285
aF-0.044024545699357986
aF0.0483696311712265
aF0.03180764615535736
aF0.2839233875274658
aF0.1308295577764511
aF0.0489460751414299
aF0.1455961912870407
aF-0.01787802204489708
aF0.024646159261465073
aF-0.23491224646568298
aF-0.027531823143363
aF0.08433665335178375
aF-0.08192160725593567
aF-0.04668588191270828
aF-0.0365796722471714
aF0.07950884848833084
aF0.09985415637493134
aF-0.03234143927693367
aF0.04169034957885742
aF-0.09176886826753616
aF0.10922541469335556
aF-0.12543322145938873
aF-0.08001302182674408
aF0.2121138572692871
aF0.002273176098242402
aF0.0032723285257816315
aF0.01095814909785986
aF0.03182573989033699
aF-0.015671495348215103
aF0.12446922063827515
aF-0.0423126183450222
aF0.053947996348142624
aF-0.05516330897808075
aF0.029581133276224136
aF0.037094566971063614
aF0.0033238823525607586
aF-0.05242033675312996
aF-0.04557962343096733
aF0.21444620192050934
aF0.007115677464753389
aF0.07483277469873428
aF0.04571602866053581
aF0.06166045367717743
aF0.030048150569200516
aF-0.13299185037612915
aF-0.014263217337429523
aF-0.04405485838651657
aF-0.44622477889060974
aF-0.11302940547466278
aF0.040048737078905106
aF-0.03939273953437805
aF-0.02404843270778656
aF-0.06184642016887665
aF-0.18159939348697662
aF0.03798336163163185
aF-0.054458439350128174
aF-0.016428004950284958
aF0.18860383331775665
aF0.023512253537774086
aF-0.028408698737621307
aF0.044401805847883224
aF0.09144464880228043
aF0.019697338342666626
aF0.029083503410220146
aF-0.06342916935682297
aF0.0008242821786552668
aF0.07689360529184341
aF-0.0850142166018486
aF-0.00512690981850028
aF0.07197250425815582
aF0.07518519461154938
aF-0.0015048348577693105
aF-0.06006629392504692
aF-0.02347714826464653
aF0.03599297255277634
aa(lp7
F0.012290558777749538
aF0.009522863663733006
aF0.07630740851163864
aF0.010771017521619797
aF-0.07533752173185349
aF-0.053552400320768356
aF0.04656368866562843
aF0.08817938715219498
aF0.03223235160112381
aF-0.016076263040304184
aF-0.04969027638435364
aF0.03953016549348831
aF0.06208951026201248
aF-0.022970059886574745
aF0.011517872102558613
aF-0.0208022091537714
aF0.18796397745609283
aF-0.17993828654289246
aF-0.10624455660581589
aF-0.05448266863822937
aF0.05851762741804123
aF0.18346552550792694
aF-0.10271074622869492
aF-0.06406540423631668
aF0.07444948703050613
aF0.04705430194735527
aF-0.014567560516297817
aF-0.021396053954958916
aF-0.0066901808604598045
aF-0.003327996237203479
aF-0.0038249806966632605
aF0.0387466624379158
aF-0.007434030994772911
aF0.05562756583094597
aF-0.07837620377540588
aF0.012798776850104332
aF0.18711096048355103
aF-0.02572760172188282
aF-0.09046563506126404
aF-0.10615433752536774
aF-0.046384409070014954
aF-0.04671360179781914
aF-0.04950438439846039
aF0.03227245807647705
aF0.11837247014045715
aF0.09869243949651718
aF0.08352281898260117
aF-0.028275230899453163
aF0.1256660521030426
aF-0.08099585026502609
aF0.040171559900045395
aF-0.235782191157341
aF0.01668030023574829
aF0.11876842379570007
aF-0.03210560977458954
aF-0.07589303702116013
aF-0.21683181822299957
aF-0.046357136219739914
aF-0.053468357771635056
aF-0.007006733678281307
aF0.1608087718486786
aF0.11945554614067078
aF0.05770588293671608
aF-0.023673757910728455
aF-0.24110913276672363
aF0.06246252730488777
aF0.0007680904236622155
aF0.007389403879642487
aF0.12841907143592834
aF-0.10798534005880356
aF0.026588279753923416
aF-0.011768528260290623
aF-0.06866279989480972
aF0.051729340106248856
aF-0.010556512512266636
aF-0.0920506939291954
aF-0.052931416779756546
aF0.046005744487047195
aF-0.15262192487716675
aF0.07691849768161774
aF0.19514243304729462
aF0.019249405711889267
aF-0.11361796408891678
aF-0.043460119515657425
aF-0.03130404278635979
aF-0.07270751893520355
aF0.09184348583221436
aF-0.08328914642333984
aF-0.046803154051303864
aF0.07567884773015976
aF-0.1263750046491623
aF-0.14105229079723358
aF0.002260819775983691
aF0.15576648712158203
aF-0.004047029186040163
aF0.13346070051193237
aF-0.18337471783161163
aF0.020311670377850533
aF0.07088897377252579
aF0.1069234162569046
aF-0.07705912739038467
aF0.12780527770519257
aF-0.0015385594451799989
aF-0.0858994796872139
aF-0.028585558757185936
aF-0.00024945917539298534
aF0.07343504577875137
aF-0.09175489097833633
aF0.09781403839588165
aF0.12348251789808273
aF0.15134590864181519
aF0.030992278829216957
aF0.1486009955406189
aF0.07098115235567093
aF-0.09809322655200958
aF-0.003977717366069555
aF-0.02903243526816368
aF0.05780273675918579
aF0.08737686276435852
aF0.01611299067735672
aF-0.037906989455223083
aF-0.010008770041167736
aF0.07812921702861786
aF0.06324450671672821
aF0.03285694867372513
aF0.06455513834953308
aF0.07534893602132797
aF-0.06139536201953888
aa(lp8
F0.2170567512512207
aF-0.03941573575139046
aF0.05253422632813454
aF0.1353103369474411
aF0.09300742298364639
aF0.08417653292417526
aF-0.10324937850236893
aF0.009900522418320179
aF-0.057617466896772385
aF-0.13609512150287628
aF-0.028939824551343918
aF-0.037291884422302246
aF0.013811800628900528
aF-0.06314203888177872
aF-0.025264300405979156
aF-0.12402189522981644
aF-0.0432412214577198
aF0.06032002717256546
aF0.19101692736148834
aF-0.03925229236483574
aF0.0850844532251358
aF0.1290975660085678
aF-0.20749595761299133
aF0.03496091067790985
aF0.0400506891310215
aF-0.05273681879043579
aF-0.07873150706291199
aF0.03650529682636261
aF-0.009170250035822392
aF0.00126548926346004
aF-0.04801379144191742
aF-0.022432416677474976
aF-0.13325771689414978
aF0.07725991308689117
aF-0.09214460849761963
aF-0.02457634173333645
aF0.07451565563678741
aF-0.06584851443767548
aF0.0733071118593216
aF-0.04136711359024048
aF-0.007955235429108143
aF0.0340852327644825
aF-0.04429207369685173
aF0.024449480697512627
aF-0.08639910817146301
aF-0.042602088302373886
aF0.0654793307185173
aF-0.046352971345186234
aF-0.026525406166911125
aF-0.021399248391389847
aF0.04429302737116814
aF0.008597568608820438
aF0.011396768502891064
aF0.13415999710559845
aF0.07133104652166367
aF0.056214459240436554
aF0.02548583783209324
aF-0.06186791509389877
aF0.15176331996917725
aF0.0031207154970616102
aF0.054044075310230255
aF0.14805591106414795
aF0.030062278732657433
aF-0.28241080045700073
aF-0.009384150616824627
aF0.062336165457963943
aF0.09988503903150558
aF0.08889849483966827
aF0.0673341453075409
aF-0.06530999392271042
aF0.045989990234375
aF0.08049055933952332
aF-0.07372801750898361
aF0.09137745946645737
aF0.08089303970336914
aF0.09420975297689438
aF-0.13138404488563538
aF0.06212695315480232
aF-0.08783528208732605
aF0.0014678665902465582
aF0.06061001494526863
aF0.012972568161785603
aF-0.1407790184020996
aF0.12890876829624176
aF-0.051534656435251236
aF-0.04173046350479126
aF0.09012726694345474
aF-0.009907654486596584
aF0.015194091014564037
aF0.020899560302495956
aF-0.10747046768665314
aF0.011953866109251976
aF-0.13026826083660126
aF-0.08920303732156754
aF0.07652758061885834
aF0.18577523529529572
aF-0.10818707942962646
aF0.23677721619606018
aF0.13053451478481293
aF-0.1741955727338791
aF-0.014764930121600628
aF-0.10993774235248566
aF-0.006139931734651327
aF-0.03711704537272453
aF0.04194016382098198
aF0.057442232966423035
aF0.009077079594135284
aF-0.06634458154439926
aF-0.04966547712683678
aF-0.004123833030462265
aF-0.011583617888391018
aF-0.07830613851547241
aF0.026768548414111137
aF0.006110558286309242
aF0.10619658976793289
aF0.04576634243130684
aF0.12363572418689728
aF-0.13527095317840576
aF-0.027120763435959816
aF-0.016703419387340546
aF-0.09005202353000641
aF0.06949485838413239
aF-0.0666513741016388
aF0.052690375596284866
aF0.0860380083322525
aF0.01872740127146244
aF0.14790134131908417
aF-0.16602951288223267
aa(lp9
F-0.11413980275392532
aF-0.012441953644156456
aF-0.043991461396217346
aF-0.0013262161519378424
aF-0.15844601392745972
aF-0.03876000642776489
aF0.16943387687206268
aF0.05051879584789276
aF0.03828169032931328
aF0.012362705543637276
aF0.10532420128583908
aF-0.005667164456099272
aF-0.06029335409402847
aF0.05654339864850044
aF0.015853188931941986
aF0.058022160083055496
aF0.11481056362390518
aF-0.17042730748653412
aF-0.08991077542304993
aF-0.09138061851263046
aF-0.018602680414915085
aF-0.036401860415935516
aF0.08009366691112518
aF0.08191104978322983
aF-0.06423293054103851
aF0.08098720014095306
aF0.07960565388202667
aF-0.029925916343927383
aF0.1543206125497818
aF-0.07937510311603546
aF0.016988493502140045
aF0.16447380185127258
aF-0.03870182856917381
aF0.03966566175222397
aF0.12495765089988708
aF-0.19461797177791595
aF-0.06652648746967316
aF0.048814065754413605
aF-0.029223157092928886
aF0.012447968125343323
aF0.029460100457072258
aF0.01167306024581194
aF-0.024274611845612526
aF-0.049183085560798645
aF0.05871418118476868
aF0.025745492428541183
aF-0.07098273932933807
aF0.06596504151821136
aF0.011163583025336266
aF0.033093079924583435
aF0.0017079925164580345
aF0.07937594503164291
aF0.06990214437246323
aF0.045912016183137894
aF0.06872599571943283
aF-0.002420189091935754
aF-0.050940707325935364
aF0.01059566717594862
aF0.07357797771692276
aF-0.026620609685778618
aF-0.04923029989004135
aF-0.03484339267015457
aF0.04817887768149376
aF-0.0651332437992096
aF0.007094343658536673
aF0.024946650490164757
aF0.07686097919940948
aF-0.0033102426677942276
aF0.1379101574420929
aF0.24224843084812164
aF0.029650991782546043
aF0.1460719257593155
aF0.018302151933312416
aF0.06433477997779846
aF0.02808244526386261
aF-0.004665622022002935
aF0.147918239235878
aF0.0920974388718605
aF0.010660776868462563
aF0.08190382272005081
aF0.05091329663991928
aF0.05347847938537598
aF0.026688067242503166
aF-0.08148997277021408
aF0.000976570532657206
aF0.07398588210344315
aF0.10190562903881073
aF1.8010639450949384e-06
aF-0.025808829814195633
aF-0.05155705660581589
aF0.07180587202310562
aF-0.1068413034081459
aF-0.023383501917123795
aF-0.027204787358641624
aF-0.13378696143627167
aF-0.0011805787216871977
aF0.1813896894454956
aF-0.12524908781051636
aF-0.16872939467430115
aF0.24788732826709747
aF-0.06855785846710205
aF0.13829249143600464
aF-0.136268749833107
aF0.11490033566951752
aF-0.046501677483320236
aF-0.09050271660089493
aF-0.06608829647302628
aF-0.09674312174320221
aF0.1302710473537445
aF0.07697116583585739
aF-0.05991673469543457
aF-0.09076577425003052
aF-0.15167784690856934
aF-0.061222609132528305
aF0.01874919794499874
aF-0.1112024113535881
aF-0.024668188765645027
aF0.004351799841970205
aF-0.1453881859779358
aF-0.18558178842067719
aF0.12624065577983856
aF-0.05302668735384941
aF0.0619758702814579
aF-0.14869803190231323
aF-0.006369561888277531
aF0.015534305945038795
aF-0.10620103776454926
aF-0.11509932577610016
aa(lp10
F0.023674558848142624
aF-0.0897233858704567
aF0.053638260811567307
aF0.11595451086759567
aF0.10840269923210144
aF-0.011407463811337948
aF-0.012353449128568172
aF-0.08938547223806381
aF0.020186837762594223
aF-0.0088418647646904
aF-0.0063529289327561855
aF0.04674247279763222
aF-0.010161963291466236
aF0.07649383693933487
aF0.09920229017734528
aF-0.04487340524792671
aF-0.07662457972764969
aF-0.01846526563167572
aF0.016304682940244675
aF0.19417449831962585
aF-0.00020047933503519744
aF0.17339429259300232
aF0.11845983564853668
aF0.041425831615924835
aF-0.002588961273431778
aF-0.0035253020469099283
aF-0.06027127802371979
aF0.11410362273454666
aF-0.1134294718503952
aF-0.13970160484313965
aF-0.08687774091959
aF0.08290135860443115
aF0.011632843874394894
aF0.04164022579789162
aF-0.12727287411689758
aF0.0008860715897753835
aF0.10962460190057755
aF0.13103212416172028
aF0.004218646790832281
aF0.12142063677310944
aF-0.03408323600888252
aF0.09977959096431732
aF0.019816536456346512
aF0.030525164678692818
aF0.011737708002328873
aF-0.04667158052325249
aF-0.03952505439519882
aF0.028638726100325584
aF0.07828883081674576
aF0.09679353982210159
aF-0.07109180837869644
aF0.0984182357788086
aF0.017048045992851257
aF0.009067638777196407
aF-0.011428169906139374
aF-0.13133934140205383
aF0.058937981724739075
aF0.1738836169242859
aF0.06575388461351395
aF0.012503895908594131
aF0.1474067121744156
aF-0.014038589783012867
aF-0.04030747339129448
aF-0.027236640453338623
aF0.022164395079016685
aF-0.007218843325972557
aF0.19369567930698395
aF0.03481539711356163
aF-0.12329214811325073
aF-0.12149766832590103
aF-0.051543645560741425
aF0.019585296511650085
aF-0.19186115264892578
aF-0.01736091636121273
aF-0.04200296849012375
aF-0.036413613706827164
aF-0.06664964556694031
aF0.09548284113407135
aF-0.18422627449035645
aF-0.047010477632284164
aF-0.23982247710227966
aF0.03380277007818222
aF0.025713114067912102
aF-0.09009118378162384
aF-0.0023237536661326885
aF0.0740724503993988
aF-0.06304936856031418
aF-0.055468861013650894
aF0.040804583579301834
aF-0.07077006250619888
aF0.046678636223077774
aF0.029118524864315987
aF0.12078352272510529
aF0.010976636782288551
aF0.10871648043394089
aF0.1693374365568161
aF0.12368693202733994
aF0.10319460183382034
aF0.08889220654964447
aF-0.043717898428440094
aF0.1727111041545868
aF-0.00879041850566864
aF-0.044220972806215286
aF0.1336456835269928
aF-0.014642467722296715
aF0.12646915018558502
aF-0.2158820629119873
aF-0.04469900205731392
aF-0.05475200340151787
aF-0.26359841227531433
aF0.09037679433822632
aF0.03932194784283638
aF-0.01736292615532875
aF-0.08325868844985962
aF-0.05576297268271446
aF0.003102176822721958
aF0.0034989421255886555
aF0.09566204994916916
aF0.023099303245544434
aF-0.00023312709527090192
aF0.028411127626895905
aF-0.0914388969540596
aF-0.025806864723563194
aF0.004688445013016462
aF0.12063119560480118
aF0.05555533990263939
aF-0.013364243321120739
aF0.06432092934846878
aa(lp11
F0.018365276977419853
aF0.0030948754865676165
aF-0.15902845561504364
aF-0.036922041326761246
aF-0.0354115329682827
aF0.15007002651691437
aF0.0807451531291008
aF-0.016775529831647873
aF0.016187135130167007
aF-0.12568746507167816
aF-0.12730583548545837
aF-0.0334068201482296
aF0.10564788430929184
aF-0.040476277470588684
aF0.020143283531069756
aF0.10831266641616821
aF0.08181746304035187
aF-0.027112651616334915
aF-0.10554711520671844
aF-0.020115111023187637
aF-0.10697361826896667
aF-0.12649069726467133
aF0.08606985211372375
aF-0.2658650279045105
aF-0.03156612068414688
aF-0.014188471250236034
aF-0.026071147993206978
aF-0.081967793405056
aF-0.07796381413936615
aF0.08052840083837509
aF0.11953014135360718
aF0.07121637463569641
aF0.2006077617406845
aF-0.03633083775639534
aF0.07679125666618347
aF-0.07258952409029007
aF-0.06632814556360245
aF-0.0149055365473032
aF0.011990845203399658
aF0.17371273040771484
aF0.022456614300608635
aF0.027234358713030815
aF0.172699972987175
aF-0.10423839837312698
aF0.009630318731069565
aF-0.04170310124754906
aF-0.056219588965177536
aF0.01843269169330597
aF0.08593276888132095
aF0.024871865287423134
aF0.03489096835255623
aF0.07974103093147278
aF-0.04284854233264923
aF0.0011484712595120072
aF0.07918450981378555
aF-0.030131449922919273
aF-0.02133735828101635
aF0.03342260792851448
aF-0.054660454392433167
aF0.011982407420873642
aF0.12529876828193665
aF-0.020418111234903336
aF-0.1318618357181549
aF0.13086578249931335
aF-0.03555642440915108
aF0.009035110473632812
aF-0.04921125993132591
aF0.03919900208711624
aF-0.081881582736969
aF0.03818637505173683
aF-0.04221890866756439
aF-0.10777177661657333
aF0.006933985743671656
aF-0.10115799307823181
aF-0.035434212535619736
aF-0.022863397374749184
aF-0.06449194997549057
aF-0.19158650934696198
aF-0.06082678213715553
aF0.10229049623012543
aF0.22651715576648712
aF0.006542964372783899
aF0.16705891489982605
aF0.02889980375766754
aF-0.015445785596966743
aF-0.1372048258781433
aF0.007617009337991476
aF-0.029121050611138344
aF0.015645146369934082
aF-0.056916628032922745
aF0.02818877436220646
aF-0.23982906341552734
aF0.05662813037633896
aF-0.036061231046915054
aF-0.006277506705373526
aF-0.02608335018157959
aF-0.010539078153669834
aF-0.1256009042263031
aF-0.01628967560827732
aF0.02512938715517521
aF-0.03265903890132904
aF-0.10685725510120392
aF0.06345704942941666
aF-0.031050894409418106
aF-0.002145671984180808
aF-0.1198912113904953
aF0.10471981763839722
aF0.08793395012617111
aF0.07133342325687408
aF0.016870608553290367
aF-0.20305557548999786
aF0.005871972069144249
aF0.019937142729759216
aF-0.12316904962062836
aF0.015851203352212906
aF0.05713221803307533
aF-0.1175951436161995
aF0.035889796912670135
aF-0.0807240679860115
aF-0.049482278525829315
aF0.07693946361541748
aF-0.15371951460838318
aF-0.09553723782300949
aF0.20107880234718323
aF0.03475175425410271
aF-0.045559123158454895
aF0.05991452932357788
aF0.006539463065564632
aa(lp12
F0.20996657013893127
aF0.003400695975869894
aF0.08272632211446762
aF0.1711278110742569
aF0.08197560161352158
aF-0.021788107231259346
aF-0.14156803488731384
aF-0.044344812631607056
aF0.0003005299950018525
aF-0.26379427313804626
aF-0.04417186230421066
aF0.00019854240235872567
aF0.012120840139687061
aF-0.12756656110286713
aF-0.06679105758666992
aF0.03643941506743431
aF-0.06447572261095047
aF0.03024931252002716
aF0.008972730487585068
aF-0.035541314631700516
aF-0.04149690270423889
aF-0.15348966419696808
aF-0.09914558380842209
aF0.02627522498369217
aF-0.02031506411731243
aF0.01474879588931799
aF-0.12196020036935806
aF-0.018749495968222618
aF-0.1181541234254837
aF-0.060718175023794174
aF-0.09522481262683868
aF0.01593710668385029
aF-0.09997585415840149
aF0.08928901702165604
aF-0.12466003000736237
aF-0.021491877734661102
aF-0.01167377084493637
aF-0.008825046941637993
aF-0.04212316870689392
aF-0.05279196426272392
aF-0.03866737335920334
aF-0.10787516087293625
aF-0.014210480265319347
aF-0.14106015861034393
aF-0.0505923293530941
aF-0.07839429378509521
aF0.007177992723882198
aF-0.043199192732572556
aF-0.05951903015375137
aF-0.11258617788553238
aF-0.07595984637737274
aF-0.05667708441615105
aF-0.007627884857356548
aF0.16940581798553467
aF0.15428589284420013
aF0.014327211305499077
aF-0.07885244488716125
aF-0.06574433296918869
aF0.13311873376369476
aF-0.10803487151861191
aF0.09290877729654312
aF-0.02211231365799904
aF-0.041203465312719345
aF-0.22641782462596893
aF0.0488346703350544
aF0.038552794605493546
aF-0.025662679225206375
aF0.023019688203930855
aF-0.0022465321235358715
aF-0.15139104425907135
aF0.049334850162267685
aF-0.005863938946276903
aF-0.03727411851286888
aF0.11413158476352692
aF0.030079979449510574
aF0.07438372820615768
aF-0.12461497634649277
aF-0.011599632911384106
aF-0.03574010357260704
aF-0.036098554730415344
aF0.09376423060894012
aF0.09491027891635895
aF0.06078673526644707
aF0.036201976239681244
aF0.04259393364191055
aF-0.025043796747922897
aF0.073904849588871
aF-0.09422615170478821
aF0.03381666541099548
aF0.04351526498794556
aF0.02746908739209175
aF0.015248307958245277
aF-0.044968776404857635
aF0.019329410046339035
aF0.06573949754238129
aF0.03617418557405472
aF-0.18728214502334595
aF0.16595588624477386
aF0.17551395297050476
aF-0.16662825644016266
aF-0.017071997746825218
aF-0.23037604987621307
aF-0.049941737204790115
aF-0.10371200740337372
aF-0.012520750984549522
aF-0.07546506077051163
aF-0.025620877742767334
aF0.01848655752837658
aF0.04038555175065994
aF0.09133967012166977
aF-0.05010669678449631
aF0.06444632261991501
aF-0.015719251707196236
aF0.07898584753274918
aF0.03364624083042145
aF0.06479144096374512
aF0.08307527750730515
aF-0.02676323615014553
aF0.02406604029238224
aF0.06038554385304451
aF-0.012428643181920052
aF-0.12221888452768326
aF-0.006877416744828224
aF0.11401670426130295
aF0.07355660945177078
aF-0.015229622833430767
aF0.18402348458766937
aF-0.15943023562431335
aa(lp13
F0.04506155848503113
aF0.050136491656303406
aF0.05299437418580055
aF-0.02693294733762741
aF0.04387417063117027
aF0.02489779330790043
aF0.02954016625881195
aF-0.01817312091588974
aF0.08641145378351212
aF0.10950243473052979
aF0.1579071432352066
aF0.04897087439894676
aF0.08214975893497467
aF0.10017426311969757
aF-0.10918604582548141
aF-0.1409991979598999
aF0.06817416101694107
aF-0.04806454852223396
aF-0.17604409158229828
aF0.1140478104352951
aF0.06960176676511765
aF-0.1026364117860794
aF0.022171614691615105
aF-0.06869714707136154
aF0.09684579074382782
aF-0.07205933332443237
aF-0.07649688422679901
aF0.016457121819257736
aF-0.013705229386687279
aF0.061295002698898315
aF0.05399460718035698
aF-0.08477787673473358
aF0.050788845866918564
aF0.06879090517759323
aF-0.01539693959057331
aF0.19184090197086334
aF-0.08428307622671127
aF-0.0108934435993433
aF-0.042855728417634964
aF-0.1594579517841339
aF0.01627025194466114
aF-0.09595569223165512
aF-0.017728475853800774
aF0.043133508414030075
aF0.025726765394210815
aF0.02063891477882862
aF-0.07519306987524033
aF-0.08177617937326431
aF0.04090533405542374
aF0.10638296604156494
aF0.025257762521505356
aF-0.10537951439619064
aF-0.06664072722196579
aF0.13618075847625732
aF-0.10240670293569565
aF-0.05170715972781181
aF-0.19959624111652374
aF-0.07835457473993301
aF-0.18049611151218414
aF-0.07426441460847855
aF-0.03860829025506973
aF0.15990713238716125
aF0.028824789449572563
aF0.08235867321491241
aF-0.011673672124743462
aF0.042233314365148544
aF0.05927736312150955
aF0.031579043716192245
aF-0.01030928734689951
aF-0.15459318459033966
aF0.060871537774801254
aF-0.1232220008969307
aF0.04261719435453415
aF0.07050178200006485
aF0.13627970218658447
aF-0.08071828633546829
aF0.0759253203868866
aF0.11095511168241501
aF-0.023126525804400444
aF-0.01068652793765068
aF0.05495559796690941
aF-0.010567964054644108
aF-0.031150387600064278
aF-0.12634223699569702
aF0.06496770679950714
aF-0.03300890326499939
aF-0.06776484847068787
aF-0.016032323241233826
aF-0.07393775135278702
aF0.11638291925191879
aF0.00886530615389347
aF-0.10076986253261566
aF0.056716397404670715
aF0.07731708884239197
aF0.13306784629821777
aF0.033503998070955276
aF0.02398085966706276
aF-0.04350224509835243
aF-0.1106632798910141
aF0.06816141307353973
aF0.12296353280544281
aF0.10293113440275192
aF0.025516154244542122
aF0.04424145817756653
aF-0.009113656356930733
aF0.22809557616710663
aF-0.0274980291724205
aF-0.13567937910556793
aF0.1546446532011032
aF0.027217503637075424
aF-0.05913035571575165
aF-0.026402465999126434
aF0.169938862323761
aF-0.08160333335399628
aF-0.20934125781059265
aF-0.037145618349313736
aF0.0641031563282013
aF0.09338840842247009
aF0.05681005120277405
aF0.0011511441553011537
aF-0.09236684441566467
aF0.15258252620697021
aF0.0375487357378006
aF-0.13010534644126892
aF-0.019122805446386337
aF0.06542086601257324
aF-0.10663909465074539
aF0.06909848749637604
aa(lp14
F0.050636809319257736
aF0.0729723647236824
aF-0.06591223925352097
aF0.12595801055431366
aF0.15516380965709686
aF0.06454399228096008
aF0.03277020901441574
aF-0.2249857783317566
aF-0.0676642432808876
aF0.09625199437141418
aF-0.043810561299324036
aF0.012402679771184921
aF0.1628352850675583
aF-0.01872396096587181
aF0.06048913300037384
aF0.07684000581502914
aF0.010660210624337196
aF-0.01612239144742489
aF0.05423051863908768
aF0.18021804094314575
aF0.02800988219678402
aF-0.001548451604321599
aF-0.01723942719399929
aF0.08269405364990234
aF0.0365314744412899
aF-0.024474794045090675
aF-0.025140808895230293
aF0.00801511388272047
aF-0.030386261641979218
aF-0.10891708731651306
aF0.009788707830011845
aF-0.08262491226196289
aF0.04148312285542488
aF0.03132724389433861
aF0.0713486447930336
aF-0.08094464242458344
aF-0.10846926271915436
aF-0.03983065113425255
aF-0.03342662751674652
aF-0.01920948550105095
aF0.12714961171150208
aF-0.13247430324554443
aF0.024404259398579597
aF-0.08234626054763794
aF-0.0870262086391449
aF0.0031265923753380775
aF-0.029044276103377342
aF-0.014956953004002571
aF-0.034524980932474136
aF0.017285067588090897
aF0.03221713379025459
aF0.0693143680691719
aF-0.07464935630559921
aF0.06417753547430038
aF-0.0012823985889554024
aF-0.06260381639003754
aF-0.11089645326137543
aF-0.011042668484151363
aF-0.01366829127073288
aF-0.18770714104175568
aF0.022315863519906998
aF-0.021377261728048325
aF-0.0677981749176979
aF-0.1502484828233719
aF0.026493273675441742
aF-0.10107547789812088
aF-0.0770391896367073
aF0.07954070717096329
aF-0.023610884323716164
aF-0.23864492774009705
aF-0.07704327255487442
aF0.05818107724189758
aF-0.03620903939008713
aF-0.01925368793308735
aF0.13121812045574188
aF0.021025625988841057
aF0.057488203048706055
aF0.038338739424943924
aF0.020983250811696053
aF-0.006348701193928719
aF-0.2898697853088379
aF-0.010874533094465733
aF0.0051137832924723625
aF-0.06198373809456825
aF0.0397888645529747
aF0.09820470213890076
aF-0.03787161409854889
aF0.07169976085424423
aF-0.040008220821619034
aF-0.052856359630823135
aF0.10317609459161758
aF0.035665228962898254
aF-0.09794264286756516
aF-0.05013059452176094
aF0.07495762407779694
aF0.04310371354222298
aF0.14650194346904755
aF0.007513976655900478
aF-0.1843617856502533
aF-0.14589577913284302
aF0.0055779204703867435
aF0.15591704845428467
aF-0.05969320237636566
aF0.14424702525138855
aF0.10769393295049667
aF0.037433065474033356
aF0.053842827677726746
aF-0.12263230234384537
aF0.17528128623962402
aF0.04020183905959129
aF0.017792247235774994
aF-0.1465839445590973
aF-0.12068133056163788
aF0.05716445669531822
aF0.11803927272558212
aF0.05813520401716232
aF0.10351162403821945
aF-0.10206155478954315
aF-0.07972092181444168
aF-0.0924527570605278
aF0.06635923683643341
aF-0.0821385309100151
aF0.037403419613838196
aF0.026995880529284477
aF0.003522279439494014
aF-0.05947263166308403
aF-0.18690773844718933
aF-0.08880805969238281
aa(lp15
F-0.15102067589759827
aF0.024394946172833443
aF-0.24164697527885437
aF0.08201050758361816
aF-0.029758717864751816
aF-0.01471756212413311
aF-0.24724161624908447
aF-0.01171043049544096
aF0.07935485988855362
aF-0.035269252955913544
aF-0.002109293593093753
aF-0.05039793998003006
aF0.20765170454978943
aF0.056319620460271835
aF-0.03709534928202629
aF-0.07240519672632217
aF-0.051632676273584366
aF-0.0669156089425087
aF-0.07773876190185547
aF-0.16689738631248474
aF-0.10570881515741348
aF0.014908377081155777
aF-0.07359841465950012
aF-0.10085972398519516
aF-0.10962188988924026
aF-0.13153566420078278
aF0.06065667048096657
aF-0.005200023762881756
aF-0.05450722947716713
aF-0.07222835719585419
aF0.04708114266395569
aF-0.014425717294216156
aF0.1145993024110794
aF-0.015265662223100662
aF0.0017559020780026913
aF-0.014055388979613781
aF0.10960540920495987
aF-0.04387154430150986
aF0.08295313268899918
aF-0.061051372438669205
aF-0.06591513752937317
aF0.12845398485660553
aF-0.01453437004238367
aF0.026988018304109573
aF0.038801077753305435
aF0.03493751212954521
aF0.09741024672985077
aF-0.12879739701747894
aF0.13118162751197815
aF0.011296798475086689
aF-0.04216453805565834
aF-0.1755698025226593
aF0.054970018565654755
aF-0.10515107959508896
aF-0.055166177451610565
aF-0.08982319384813309
aF-0.011866478249430656
aF-0.03924316167831421
aF-0.027435394003987312
aF0.09944199025630951
aF-0.027684086933732033
aF-0.0855078250169754
aF0.05486394837498665
aF0.07735924422740936
aF-0.014362719841301441
aF-0.1395024061203003
aF-0.18364770710468292
aF-0.02976423129439354
aF0.07309869676828384
aF-0.0231182761490345
aF-0.07292748987674713
aF0.0009708789293654263
aF-0.01641244627535343
aF-0.0821228101849556
aF-0.011562428437173367
aF-0.004536384250968695
aF-0.014421755447983742
aF-0.13059428334236145
aF-0.12242772430181503
aF0.05167948454618454
aF0.30636149644851685
aF-0.018985264003276825
aF-0.07514858990907669
aF0.06116730719804764
aF-0.10335791856050491
aF0.10100967437028885
aF-0.02679438330233097
aF-0.09100818634033203
aF-0.028589826077222824
aF-0.049316443502902985
aF-0.05505760759115219
aF0.013268113136291504
aF0.060606930404901505
aF0.025504112243652344
aF-0.02812807261943817
aF-0.09478066861629486
aF-0.032652005553245544
aF0.011958375573158264
aF-0.06154092773795128
aF0.06108180433511734
aF-0.0723830834031105
aF0.045136868953704834
aF-0.05360636115074158
aF-0.018461909145116806
aF-0.048052169382572174
aF-0.030393652617931366
aF0.08644603937864304
aF0.19474749267101288
aF0.06795240193605423
aF-0.006016619503498077
aF-0.13166123628616333
aF-0.10328027606010437
aF0.08266332745552063
aF0.004321380518376827
aF0.07063078880310059
aF0.00028318751719780266
aF-0.19943839311599731
aF-0.06424406915903091
aF0.04464396461844444
aF0.065266452729702
aF0.005571195390075445
aF0.1292206346988678
aF0.06283918768167496
aF-0.12404844164848328
aF0.09138302505016327
aF-0.08315619826316833
aF0.03154216334223747
aF-0.06914559006690979
aa(lp16
F0.013275719247758389
aF0.02321409434080124
aF0.033780537545681
aF0.043640654534101486
aF0.01592153124511242
aF0.013552045449614525
aF-0.11355675011873245
aF-0.01468241959810257
aF-0.008693304844200611
aF0.20469029247760773
aF0.02185383439064026
aF-0.03314736858010292
aF-0.11163993924856186
aF-0.04662715271115303
aF0.09219005703926086
aF0.014021825976669788
aF-0.28107187151908875
aF0.08593662083148956
aF0.03514038026332855
aF0.12644731998443604
aF0.03709724172949791
aF-0.12526975572109222
aF-0.1919504553079605
aF0.1317356526851654
aF0.042696673423051834
aF0.01793013885617256
aF-0.046900056302547455
aF-0.06455906480550766
aF-0.046198952943086624
aF-0.18520352244377136
aF0.01333159301429987
aF-0.04388384893536568
aF0.004338540136814117
aF-0.15159833431243896
aF-0.09723928570747375
aF0.05161983147263527
aF-0.027939366176724434
aF-0.014642128720879555
aF-0.012424979358911514
aF-0.14081867039203644
aF-0.013000570237636566
aF-0.05573439598083496
aF-0.03457380831241608
aF-0.004681307356804609
aF-0.18194763362407684
aF0.035467930138111115
aF-0.046998489648103714
aF-0.02878115512430668
aF-0.0558072030544281
aF0.025237351655960083
aF0.00882242526859045
aF0.020332690328359604
aF-0.06609828770160675
aF0.01866866648197174
aF-0.06045769155025482
aF0.0867868959903717
aF-0.16656020283699036
aF0.06263215094804764
aF-0.03719576448202133
aF-0.13235507905483246
aF0.11587341129779816
aF-0.04280402138829231
aF0.20620784163475037
aF-0.04186448082327843
aF-0.02461712434887886
aF0.1359705775976181
aF0.19489897787570953
aF0.042869944125413895
aF-0.05605808272957802
aF-0.17140202224254608
aF0.018876878544688225
aF0.025453664362430573
aF0.017854949459433556
aF0.0023646976333111525
aF0.09944719076156616
aF0.07237023115158081
aF0.07805780321359634
aF0.06577400863170624
aF-0.1318444311618805
aF0.034080781042575836
aF-0.08429590612649918
aF0.027236908674240112
aF-0.10945414006710052
aF0.04894626885652542
aF-0.08868243545293808
aF0.14507967233657837
aF-0.04041118547320366
aF0.03191549703478813
aF-0.0033692526631057262
aF0.03385518118739128
aF-0.028811011463403702
aF0.14170335233211517
aF0.02913386933505535
aF-0.048255883157253265
aF0.012667670845985413
aF-0.026784799993038177
aF0.0864025428891182
aF0.054685842245817184
aF0.015315729193389416
aF-0.05252840369939804
aF0.19665232300758362
aF-0.06997202336788177
aF-0.020384574308991432
aF0.13320215046405792
aF-0.0021096845157444477
aF0.19938766956329346
aF-0.012808077037334442
aF-0.01874326542019844
aF0.029184864833950996
aF-0.02610214613378048
aF0.1022145077586174
aF0.04860890284180641
aF0.013682396151125431
aF-0.05085698887705803
aF-0.12589150667190552
aF-0.01453368365764618
aF0.0005836577038280666
aF0.08831068873405457
aF0.07024936378002167
aF-0.14410725235939026
aF-0.0894746258854866
aF0.05083451420068741
aF0.025984156876802444
aF0.01897415891289711
aF0.16055718064308167
aF0.09226049482822418
aF0.028679853305220604
aF-0.14143243432044983
aa(lp17
F0.17964088916778564
aF-0.0664982944726944
aF-0.06624355912208557
aF-0.015830067917704582
aF0.04100848734378815
aF0.01499648205935955
aF-0.10530715435743332
aF0.10177230089902878
aF-0.09155205637216568
aF0.03956181928515434
aF-0.08841598778963089
aF-0.07571743428707123
aF-0.1359354704618454
aF-0.03016328439116478
aF-0.14032404124736786
aF0.08454984426498413
aF0.07883955538272858
aF-0.06514772772789001
aF0.08225157111883163
aF0.03676776960492134
aF0.032005902379751205
aF-0.006068128626793623
aF-0.19052881002426147
aF0.039593130350112915
aF0.024903904646635056
aF-0.0505429282784462
aF0.05750754475593567
aF-0.03873458504676819
aF-0.1326444298028946
aF0.01620258204638958
aF0.014321236871182919
aF0.04934856668114662
aF-0.013549857772886753
aF0.14910396933555603
aF-0.01754438318312168
aF0.05350629612803459
aF0.043597109615802765
aF0.08292866498231888
aF0.007908178493380547
aF0.02614307776093483
aF-0.04039032757282257
aF0.03006329946219921
aF0.06774589419364929
aF-0.07611554116010666
aF-0.04449654370546341
aF-0.14106568694114685
aF0.18148739635944366
aF0.03224465996026993
aF-0.13715597987174988
aF-0.11109104752540588
aF0.035252638161182404
aF-0.1327110379934311
aF-0.06086459755897522
aF-0.007565459236502647
aF0.1968965232372284
aF-0.0024944685865193605
aF-0.1004858985543251
aF0.06012336537241936
aF-0.05768882855772972
aF-0.1678147166967392
aF0.09591933339834213
aF0.18706826865673065
aF-0.1288026124238968
aF-0.1536959409713745
aF-0.20163686573505402
aF0.10537315160036087
aF-0.06927836686372757
aF0.0011643263278529048
aF-0.1032894104719162
aF-0.11805745214223862
aF0.11025897413492203
aF0.1836511343717575
aF-0.13188357651233673
aF-0.08152207732200623
aF-0.004621738102287054
aF0.07063805311918259
aF-0.1572169065475464
aF0.06328994035720825
aF-0.11695460230112076
aF0.024225762113928795
aF0.04130711033940315
aF0.0074403174221515656
aF-0.08805518597364426
aF0.165029376745224
aF0.08146972954273224
aF-0.00010638864478096366
aF0.015040657483041286
aF-0.02555539645254612
aF-0.03637043759226799
aF0.15801766514778137
aF-0.03417700156569481
aF0.08926307410001755
aF0.056902069598436356
aF-0.07271741330623627
aF0.009612585417926311
aF0.05459297075867653
aF-0.04248076304793358
aF-0.008741842582821846
aF0.007532285992056131
aF-0.03298602253198624
aF-0.040343884378671646
aF-0.1787814199924469
aF-0.008317031897604465
aF-0.009460778906941414
aF0.0061697643250226974
aF0.03547979146242142
aF-0.011447696946561337
aF0.11363966763019562
aF0.12259258329868317
aF-0.041904740035533905
aF-0.16383673250675201
aF0.1134575828909874
aF-0.04178701713681221
aF-0.041992440819740295
aF-0.007491023745387793
aF-0.047591131180524826
aF0.0336267314851284
aF-0.03519821539521217
aF0.12000665813684464
aF-0.053635090589523315
aF-0.05482212081551552
aF0.03881227970123291
aF-0.036893993616104126
aF0.07033102214336395
aF0.06255082786083221
aF-0.04826478287577629
aF0.07478441298007965
aF-0.0861927941441536
aa(lp18
F0.15012231469154358
aF-0.06109338253736496
aF0.11011555045843124
aF0.08480549603700638
aF0.1004575788974762
aF0.009407362900674343
aF0.07741548120975494
aF-0.11425075680017471
aF0.11153274774551392
aF0.03427962213754654
aF0.0965530052781105
aF-0.030558278784155846
aF0.1355353593826294
aF0.03411868214607239
aF0.008927974849939346
aF-0.1641497015953064
aF-0.00895840022712946
aF0.0679265633225441
aF0.08391319960355759
aF0.05251885950565338
aF0.04239488020539284
aF-0.11549186706542969
aF-0.03356683999300003
aF0.03218020871281624
aF-0.01939023658633232
aF0.09448885917663574
aF0.08943741768598557
aF-0.05044538155198097
aF-0.08030126243829727
aF-0.02317756414413452
aF-0.019396163523197174
aF0.05841334909200668
aF-0.037083812057971954
aF-0.14563508331775665
aF0.19603462517261505
aF0.020454879850149155
aF-0.11638113856315613
aF0.014274805784225464
aF-0.16687263548374176
aF0.06916873902082443
aF0.002240654081106186
aF-0.006424234714359045
aF0.08807748556137085
aF-0.04917826130986214
aF-0.008989696390926838
aF-0.004689511843025684
aF0.060779768973588943
aF0.014840295538306236
aF-0.146497905254364
aF0.07326967269182205
aF-0.025483129546046257
aF-0.002280790125951171
aF0.03113831952214241
aF0.021284326910972595
aF-0.13672664761543274
aF-0.07539086043834686
aF0.0726456269621849
aF0.22883422672748566
aF0.04995983466506004
aF-0.04834973067045212
aF-0.023293914273381233
aF-0.12926633656024933
aF-0.10795702785253525
aF-0.051583584398031235
aF-0.014225400984287262
aF-0.043389249593019485
aF0.015512791462242603
aF0.019344137981534004
aF0.1001623198390007
aF0.06627131998538971
aF-0.031652458012104034
aF-0.07065790891647339
aF-0.07789554446935654
aF0.0039933728985488415
aF-0.007871863432228565
aF0.1115524098277092
aF-0.12774161994457245
aF0.0026095700450241566
aF-0.05761244520545006
aF0.02684139460325241
aF0.22125515341758728
aF0.10786250978708267
aF0.05391843989491463
aF-0.06649015843868256
aF-0.04052898287773132
aF-0.03310064971446991
aF-0.024840351194143295
aF-0.03662780299782753
aF0.004900489933788776
aF0.011906896717846394
aF-0.11481217294931412
aF-0.006079109851270914
aF0.01796635240316391
aF0.012371314689517021
aF-0.17632213234901428
aF-0.06414831429719925
aF-0.01696164533495903
aF0.016559859737753868
aF-0.10526546835899353
aF-0.015819920226931572
aF0.1705544888973236
aF-0.2616274952888489
aF0.04139523208141327
aF-0.009778453968465328
aF-0.028323793783783913
aF0.01885256916284561
aF0.03987977281212807
aF0.012666519731283188
aF-0.015720367431640625
aF0.02573210373520851
aF0.1906648874282837
aF-0.0948573648929596
aF-0.03018757700920105
aF0.05930044502019882
aF0.07463695853948593
aF0.06390827894210815
aF0.24342449009418488
aF-0.20179951190948486
aF-0.07483585178852081
aF-0.0038800828624516726
aF-0.0444367453455925
aF0.08711030334234238
aF-0.02486700564622879
aF0.11879988759756088
aF0.07501190155744553
aF0.07545307278633118
aF0.12426597625017166
aF-0.08983127027750015
aa(lp19
F0.2561110854148865
aF-0.03730686381459236
aF-0.0015302322572097182
aF0.08091717213392258
aF0.007748957257717848
aF-0.014413443394005299
aF-0.17542938888072968
aF-0.010256089270114899
aF-0.09031224995851517
aF-0.10414809733629227
aF0.07217343151569366
aF0.04639698565006256
aF-0.039347127079963684
aF-0.21446961164474487
aF-0.0482175387442112
aF-0.05568026751279831
aF-0.04749216511845589
aF0.05111359804868698
aF0.046763766556978226
aF-0.019869191572070122
aF0.027207007631659508
aF0.0665774717926979
aF-0.1588485985994339
aF0.04102279245853424
aF0.03394855558872223
aF0.050970081239938736
aF-0.11199627071619034
aF0.07471965253353119
aF-0.020507948473095894
aF-0.13539226353168488
aF-0.03611205145716667
aF0.06824894994497299
aF-0.08484996110200882
aF0.09083796292543411
aF-0.06429146230220795
aF-0.020240070298314095
aF0.10900599509477615
aF-0.03292869031429291
aF-0.00024176196893677115
aF-0.017766505479812622
aF-0.04347165673971176
aF-0.13821765780448914
aF-0.015621251426637173
aF-0.04333294928073883
aF-0.046294331550598145
aF0.05450895428657532
aF0.0019855541177093983
aF0.008717064745724201
aF-0.02467573806643486
aF-0.05101149529218674
aF-0.006348049268126488
aF-0.07638726383447647
aF0.015427643433213234
aF0.0031534614972770214
aF0.1598154902458191
aF0.047560226172208786
aF-0.1428956240415573
aF0.04916170611977577
aF0.14201731979846954
aF0.029132317751646042
aF0.012924638576805592
aF0.01804463565349579
aF-0.10475398600101471
aF-0.29858407378196716
aF0.06958036869764328
aF0.13730277121067047
aF-0.019567133858799934
aF-0.003933965228497982
aF0.0254399124532938
aF-0.15276499092578888
aF0.03239469602704048
aF0.19165368378162384
aF-0.06893514841794968
aF-0.07468466460704803
aF-0.06039653345942497
aF-0.0763833075761795
aF-0.059182308614254
aF0.0630943775177002
aF-0.04763183370232582
aF0.01810094155371189
aF0.1718701422214508
aF0.013862882740795612
aF-0.07241089642047882
aF0.16181738674640656
aF0.023037821054458618
aF0.03233076632022858
aF-0.054283831268548965
aF-0.06350041180849075
aF0.0004910907591693103
aF0.06495369225740433
aF-0.1144171804189682
aF0.1645703911781311
aF0.11093416064977646
aF0.12522265315055847
aF-0.019414376467466354
aF0.051678065210580826
aF0.015715371817350388
aF0.1462196409702301
aF0.1693194955587387
aF-0.12497278302907944
aF0.011401239782571793
aF-0.1767067015171051
aF-0.05224233120679855
aF0.05005978047847748
aF-0.06983228027820587
aF0.009297084994614124
aF-0.07101321965456009
aF-0.007712438702583313
aF0.0553831085562706
aF0.013575750403106213
aF0.12169143557548523
aF-0.034258320927619934
aF0.03366635739803314
aF0.05723666772246361
aF-0.02275305986404419
aF-0.0399300642311573
aF0.019730662927031517
aF-0.11805197596549988
aF0.03536415472626686
aF0.07088451087474823
aF0.08460955321788788
aF0.03204954415559769
aF-0.03725172206759453
aF0.005932041443884373
aF0.18355123698711395
aF-0.042953524738550186
aF0.04797952249646187
aF-0.13925273716449738
aa(lp20
F0.12204044312238693
aF0.01717827282845974
aF-0.06538510322570801
aF0.02739529497921467
aF0.004409626591950655
aF-0.14844754338264465
aF0.038254547864198685
aF0.01711260713636875
aF0.0751134380698204
aF-0.11241821199655533
aF0.08625222742557526
aF0.07505223900079727
aF-0.046356528997421265
aF0.09115973114967346
aF-0.11440355330705643
aF-0.03206537291407585
aF0.0573330856859684
aF0.11469438672065735
aF-0.17512328922748566
aF-0.06633462011814117
aF-0.05105765536427498
aF0.039447955787181854
aF-0.05448857322335243
aF0.015125146135687828
aF0.029266012832522392
aF0.0675932839512825
aF-0.047722794115543365
aF0.08943554013967514
aF-0.06977623701095581
aF0.0887732282280922
aF0.021917633712291718
aF-0.15773946046829224
aF-0.05086244270205498
aF0.03765799105167389
aF-0.11067207902669907
aF-0.04555438831448555
aF0.1471824049949646
aF0.016609439626336098
aF-0.1316014975309372
aF-0.025341149419546127
aF0.009653633460402489
aF-0.0004829944227822125
aF-0.012988529168069363
aF0.09741392731666565
aF0.08842194825410843
aF-0.05138937383890152
aF0.007411343976855278
aF-0.006289699114859104
aF0.04698221758008003
aF0.07940106838941574
aF-0.0409744456410408
aF-0.17280150949954987
aF-0.06549446284770966
aF0.0007732264348305762
aF0.006795642431825399
aF-0.027060283347964287
aF-0.10175004601478577
aF-0.0806335061788559
aF-0.056150827556848526
aF-0.01342708244919777
aF-0.09036114811897278
aF0.06373901665210724
aF-0.12606459856033325
aF0.03293749317526817
aF-0.2592046558856964
aF-0.11589881032705307
aF0.062226273119449615
aF0.027838636189699173
aF0.006271752528846264
aF-0.08314715325832367
aF-0.0088298749178648
aF-0.04458236321806908
aF-0.01674962230026722
aF-0.08930988609790802
aF0.03236774727702141
aF-0.051885880529880524
aF-0.17858560383319855
aF0.029027603566646576
aF-0.01893642544746399
aF-0.034176819026470184
aF0.2008429318666458
aF-0.07967036217451096
aF-0.022309357300400734
aF-0.1163911521434784
aF-0.02569473348557949
aF-0.024582553654909134
aF0.07463899999856949
aF-0.04849230870604515
aF-0.0020954282954335213
aF0.050609201192855835
aF-0.016509534791111946
aF-0.1142166331410408
aF-0.017817581072449684
aF0.15813614428043365
aF0.06714197993278503
aF0.09545788913965225
aF-0.13100194931030273
aF0.14079125225543976
aF0.16504894196987152
aF0.064128078520298
aF0.037271853536367416
aF0.06853312253952026
aF0.006099201273173094
aF-0.09570160508155823
aF0.04667508974671364
aF0.016291555017232895
aF0.10176506638526917
aF-0.14759324491024017
aF0.04811062291264534
aF0.016894174739718437
aF0.12161394208669662
aF-0.1394364833831787
aF0.318395733833313
aF0.051687952131032944
aF-0.08624537289142609
aF-0.10782495886087418
aF-0.000653320923447609
aF0.05396352708339691
aF0.09290832281112671
aF0.08819112926721573
aF-0.09700709581375122
aF0.012196743860840797
aF-0.003976757638156414
aF0.09291279315948486
aF-0.04029025509953499
aF-0.044680800288915634
aF-0.029413318261504173
aF0.16989266872406006
aa(lp21
F0.05643981695175171
aF-0.01879889704287052
aF-0.11511246860027313
aF0.017593324184417725
aF0.0386175662279129
aF-0.06117554008960724
aF0.04724525660276413
aF0.03578324243426323
aF-0.018408754840493202
aF0.12864334881305695
aF0.1363615095615387
aF0.06986013799905777
aF-0.13922545313835144
aF-0.09057992696762085
aF-0.03660338744521141
aF0.015952467918395996
aF0.08714646846055984
aF-0.11813811212778091
aF0.0031311078928411007
aF0.03305895999073982
aF0.03172917291522026
aF0.16935358941555023
aF-0.24258720874786377
aF0.014091722667217255
aF0.06524523347616196
aF0.12086385488510132
aF0.0013642930425703526
aF-0.009450406767427921
aF-0.08804348856210709
aF0.03141937777400017
aF0.07472069561481476
aF-0.07520423829555511
aF-0.0389709435403347
aF-0.00019087505643256009
aF-0.006385325454175472
aF0.04987841844558716
aF0.12845347821712494
aF-0.01633826084434986
aF-0.17101769149303436
aF-0.04351111501455307
aF-0.04778013005852699
aF0.03243722394108772
aF-0.08602555841207504
aF0.14612950384616852
aF0.0033029133919626474
aF0.06109463423490524
aF0.03793436288833618
aF-0.007077878341078758
aF0.06424256414175034
aF-0.04526056349277496
aF-0.025590624660253525
aF-0.03941365331411362
aF-0.022681593894958496
aF-0.19773229956626892
aF-0.0920933410525322
aF-0.06457732617855072
aF-0.06394843012094498
aF0.14814899861812592
aF-0.028133442625403404
aF-0.06769437342882156
aF-0.08413595706224442
aF-0.09674940258264542
aF0.16409099102020264
aF-0.04491988569498062
aF-0.14216884970664978
aF-0.0030735789332538843
aF0.07465526461601257
aF0.04706721007823944
aF-0.1321564018726349
aF-0.019126741215586662
aF0.08067427575588226
aF0.0922621563076973
aF-0.023800434544682503
aF-0.07983522862195969
aF-0.08717510849237442
aF0.05090204253792763
aF0.07867520302534103
aF0.026538938283920288
aF-0.0011931410990655422
aF-0.08362258970737457
aF0.06568826735019684
aF-0.04786582663655281
aF-0.027716446667909622
aF-0.033991359174251556
aF0.024632228538393974
aF0.018959520384669304
aF0.05292811617255211
aF0.10777726024389267
aF-0.1586006134748459
aF-0.05971615016460419
aF-0.08246275037527084
aF-0.02615647204220295
aF0.016932399943470955
aF0.04888633266091347
aF-0.07537941634654999
aF-0.019968651235103607
aF0.12090816348791122
aF-0.18230921030044556
aF-0.14559617638587952
aF0.001623348449356854
aF0.1916278600692749
aF0.1116131991147995
aF-0.06066293641924858
aF0.07085691392421722
aF-0.09353584796190262
aF0.13391973078250885
aF0.007452161516994238
aF-0.05886252224445343
aF0.09053884446620941
aF-0.030218394473195076
aF-0.011203830130398273
aF-0.014253921806812286
aF0.2353290170431137
aF0.10028614103794098
aF-0.08490069210529327
aF-0.0795905739068985
aF0.08278223872184753
aF-0.03792545199394226
aF0.08458872139453888
aF-0.05245039239525795
aF0.09340019524097443
aF0.0919075459241867
aF0.0008270034450106323
aF-0.18814890086650848
aF0.03037884086370468
aF0.02641291171312332
aF-0.10404660552740097
aF0.19503340125083923
aa(lp22
F0.10002751648426056
aF-0.03689507395029068
aF0.036065854132175446
aF0.2650039792060852
aF0.060571812093257904
aF0.0473753921687603
aF0.17094051837921143
aF-0.052874237298965454
aF-0.04808135703206062
aF0.08502127230167389
aF-0.040545504540205
aF0.07241358608007431
aF0.08047217130661011
aF-0.1994454562664032
aF0.0021846410818398
aF0.05334259942173958
aF0.01580360159277916
aF0.03036506474018097
aF0.001270849141292274
aF0.17559388279914856
aF0.11090894788503647
aF0.08599282056093216
aF-0.09508275985717773
aF0.013656756840646267
aF0.07388754934072495
aF0.19375839829444885
aF-0.06758551299571991
aF-0.007346271071583033
aF0.05744490399956703
aF-0.10675317049026489
aF-0.04344012588262558
aF0.12182663381099701
aF-0.08593466877937317
aF0.1713881641626358
aF-0.1289018988609314
aF0.0055636195465922356
aF0.01117167342454195
aF0.14854884147644043
aF-0.09643791615962982
aF0.035795629024505615
aF0.0016578008653596044
aF0.015049481764435768
aF0.018895123153924942
aF-0.05602191388607025
aF0.046116188168525696
aF-0.0012558373855426908
aF-0.07435964047908783
aF0.08007661998271942
aF-0.0869186520576477
aF0.02301272749900818
aF0.013947377912700176
aF-0.03861505910754204
aF0.00482669472694397
aF-0.09868956357240677
aF0.02896277979016304
aF-0.015238608233630657
aF-0.08667673915624619
aF0.12831489741802216
aF0.08385366946458817
aF-0.0016448870301246643
aF-0.06811117380857468
aF0.012497978284955025
aF0.10471096634864807
aF-0.0003437897248659283
aF-0.14661328494548798
aF0.018487507477402687
aF0.09183581173419952
aF0.022798610851168633
aF0.014991769567131996
aF0.04863831028342247
aF0.11733575910329819
aF0.13586756587028503
aF-0.09468609094619751
aF-0.10153111070394516
aF-0.1474694162607193
aF0.05927414447069168
aF-0.08549580723047256
aF0.051242243498563766
aF-0.003997823689132929
aF0.03734680637717247
aF-0.21563412249088287
aF0.03619168698787689
aF0.057932548224925995
aF0.003459760220721364
aF0.07122604548931122
aF-0.05252065509557724
aF-0.026721157133579254
aF0.07879358530044556
aF0.1049627959728241
aF0.13944308459758759
aF0.11416193097829819
aF-0.0311638992279768
aF0.056418195366859436
aF-0.16932229697704315
aF0.04693601652979851
aF0.10008785128593445
aF0.16028977930545807
aF0.010585702955722809
aF0.12264598160982132
aF0.04693184792995453
aF0.2562342882156372
aF0.01256779208779335
aF-0.09126228839159012
aF0.06668022274971008
aF0.004903255961835384
aF0.11687435954809189
aF-0.02933601103723049
aF-0.09595845639705658
aF0.05490272492170334
aF-0.0850323811173439
aF-0.05322503298521042
aF0.06353829801082611
aF-0.0754232406616211
aF0.054567985236644745
aF-0.07694528251886368
aF0.09098760783672333
aF-0.011836891062557697
aF-0.023029813542962074
aF0.06458780914545059
aF0.00807399582117796
aF0.06059721112251282
aF0.07255557179450989
aF0.048411775380373
aF-0.06006939336657524
aF0.072071872651577
aF0.03243764117360115
aF-0.10405673086643219
aF-0.06415662914514542
aa(lp23
F-0.11068423092365265
aF-0.0552259124815464
aF0.053286369889974594
aF0.0417410284280777
aF-0.13509610295295715
aF-0.06989027559757233
aF-0.10834424942731857
aF-0.05863664299249649
aF0.00242371903732419
aF0.14387264847755432
aF0.06352780759334564
aF0.07400033622980118
aF-0.03910994902253151
aF0.028157487511634827
aF-0.15888455510139465
aF-0.0035127894952893257
aF-0.01905086636543274
aF0.1578916758298874
aF-0.08977773785591125
aF0.09312790632247925
aF-0.14192862808704376
aF0.0937083438038826
aF0.048365239053964615
aF0.05673925206065178
aF-0.0021627931855618954
aF-0.18546654284000397
aF-0.0868726521730423
aF-0.017407448962330818
aF0.16114294528961182
aF-0.049154624342918396
aF-0.07337057590484619
aF0.10065218806266785
aF0.060709577053785324
aF0.061546701937913895
aF0.14576679468154907
aF0.045764580368995667
aF-0.07102114707231522
aF-0.018680213019251823
aF0.08836765587329865
aF0.0077817440032958984
aF-0.028829822316765785
aF0.11618728935718536
aF-0.03696958348155022
aF-0.12031649053096771
aF-0.01084930170327425
aF0.14156879484653473
aF-0.10969904065132141
aF0.025188138708472252
aF0.08129191398620605
aF0.028081679716706276
aF0.029923997819423676
aF0.08568962663412094
aF-0.05725016072392464
aF0.0501643642783165
aF-0.01959339901804924
aF0.02800915576517582
aF0.12244043499231339
aF-0.17459888756275177
aF-0.033097315579652786
aF0.1538667231798172
aF-0.1494004875421524
aF-0.002242475049570203
aF0.10665152221918106
aF0.14818289875984192
aF0.12031834572553635
aF0.05979228764772415
aF-0.008612464182078838
aF-0.17457300424575806
aF-0.035844482481479645
aF0.0008907609153538942
aF-0.029493562877178192
aF0.04827039688825607
aF0.14036796987056732
aF0.020786771550774574
aF0.0894533023238182
aF0.029304953292012215
aF0.10014545172452927
aF0.01480855792760849
aF0.14982110261917114
aF-0.06828837096691132
aF0.11539432406425476
aF0.01832183450460434
aF-0.06167728826403618
aF-0.06597934663295746
aF-0.08073467016220093
aF0.23037230968475342
aF0.04230249300599098
aF-0.01091257855296135
aF0.004504334647208452
aF-0.004440061282366514
aF0.014400424435734749
aF0.1664312332868576
aF0.042659904807806015
aF0.02228165604174137
aF-0.03051001951098442
aF0.009977223351597786
aF-0.046719327569007874
aF0.10031019896268845
aF0.012044093571603298
aF0.05429861694574356
aF0.06789746135473251
aF0.0686134546995163
aF-0.011526663787662983
aF0.11200488358736038
aF-0.01747981086373329
aF0.04913211986422539
aF-0.007543520536273718
aF0.004895914811640978
aF-0.014609100297093391
aF0.10046027600765228
aF-0.1734839230775833
aF0.050325971096754074
aF-0.11449787020683289
aF0.0003334405191708356
aF-0.0817115381360054
aF-0.051039572805166245
aF-0.15207837522029877
aF-0.0249230545014143
aF0.086449034512043
aF0.008628426119685173
aF0.16673481464385986
aF0.20619966089725494
aF-0.05769757926464081
aF-0.12247547507286072
aF-0.06923697888851166
aF-0.028792729601264
aF-0.006909452844411135
aF0.025489425286650658
aa(lp24
F-0.10422158986330032
aF-0.12826335430145264
aF-0.07708628475666046
aF-0.09572173655033112
aF-0.0648098811507225
aF-0.08016524463891983
aF0.11144494265317917
aF0.09040100872516632
aF-0.10648628324270248
aF-0.06099151819944382
aF-0.08234710246324539
aF0.0978616327047348
aF-0.009109348058700562
aF-0.031176991760730743
aF-0.11825860291719437
aF-0.1207069531083107
aF-0.027678245678544044
aF0.13762368261814117
aF0.11578614264726639
aF0.05868998169898987
aF0.05926336720585823
aF0.028087696060538292
aF0.1316184550523758
aF0.028267979621887207
aF-0.024735035374760628
aF0.010415037162601948
aF0.07390013337135315
aF0.14407391846179962
aF0.01524775754660368
aF0.059521790593862534
aF0.059854667633771896
aF0.10039045661687851
aF0.09965818375349045
aF0.14575712382793427
aF0.05751983821392059
aF0.08584598451852798
aF0.028368385508656502
aF-0.0426754429936409
aF-0.13535815477371216
aF-0.023741833865642548
aF0.12309643626213074
aF0.05878475308418274
aF0.12293027341365814
aF0.09989872574806213
aF0.1278918981552124
aF0.13728590309619904
aF-0.0528176873922348
aF-0.013005889020860195
aF0.10135383903980255
aF-0.030510196462273598
aF0.050978727638721466
aF-0.001206431770697236
aF0.044099800288677216
aF-0.05592016875743866
aF-0.021855352446436882
aF-0.06737036257982254
aF0.04171595349907875
aF0.09318616986274719
aF0.09448468685150146
aF0.06367751955986023
aF-0.055491410195827484
aF-0.02143723890185356
aF0.08078267425298691
aF0.10149825364351273
aF-0.021983938291668892
aF-0.057039517909288406
aF-0.10344778001308441
aF-0.08171527087688446
aF-0.10174944251775742
aF-0.01719251461327076
aF-0.0466824434697628
aF0.030909208580851555
aF0.08023124933242798
aF-0.13595588505268097
aF0.0923411026597023
aF-0.13833875954151154
aF-0.020725354552268982
aF-0.04086911678314209
aF0.13227024674415588
aF0.13180002570152283
aF-0.030612550675868988
aF-0.12018432468175888
aF0.08286046981811523
aF0.05005117505788803
aF-0.13977916538715363
aF0.03613972291350365
aF-0.0644255205988884
aF0.1217978447675705
aF0.06618724018335342
aF-0.14275939762592316
aF-0.06351661682128906
aF-0.11894261837005615
aF-0.12059822678565979
aF0.014574281871318817
aF0.049065280705690384
aF-0.08182322978973389
aF0.14539004862308502
aF0.11601847410202026
aF0.02236103266477585
aF0.13847921788692474
aF0.03328206390142441
aF0.03686545416712761
aF-0.08223734050989151
aF0.14170436561107635
aF-0.14228355884552002
aF0.003645423101261258
aF0.018900034949183464
aF0.11153275519609451
aF0.12909846007823944
aF-0.08962149173021317
aF-0.03543952852487564
aF-0.10356877744197845
aF0.048087771981954575
aF0.030179303139448166
aF-0.084259994328022
aF-0.00010670260962797329
aF-0.10963179916143417
aF0.09125758707523346
aF0.11054546386003494
aF-0.13912318646907806
aF0.12982752919197083
aF-0.02857949584722519
aF0.11835667490959167
aF0.11601516604423523
aF0.07960519194602966
aF-0.08186156302690506
aF0.12055345624685287
aF-0.0705232247710228
aa(lp25
F-0.03369217365980148
aF-0.13276252150535583
aF-0.01109383162111044
aF-0.03603990375995636
aF0.05415218695998192
aF0.0535983182489872
aF-0.13299831748008728
aF-0.021466044709086418
aF0.13802474737167358
aF0.013982155360281467
aF0.006204625125974417
aF0.09823323041200638
aF-0.19999252259731293
aF-0.03304387256503105
aF-0.05870005488395691
aF-0.06586284935474396
aF-0.12144360691308975
aF0.10542196035385132
aF-0.11865514516830444
aF0.04802447557449341
aF-0.017803825438022614
aF0.07855329662561417
aF0.12444832921028137
aF0.14730454981327057
aF-0.1111064925789833
aF-0.13294653594493866
aF0.11155473440885544
aF-0.015005403198301792
aF-0.025640355423092842
aF0.145013689994812
aF-0.0007272481452673674
aF0.0041300407610833645
aF0.03330863639712334
aF-0.14385318756103516
aF-0.032978881150484085
aF-0.14745593070983887
aF-0.06549616903066635
aF0.06286481767892838
aF-0.014205089770257473
aF-0.06151701882481575
aF0.11372579634189606
aF0.13217280805110931
aF-0.005736242048442364
aF-0.17336523532867432
aF-0.10903702676296234
aF0.09317462146282196
aF0.03210331127047539
aF0.03848402202129364
aF0.07485490292310715
aF-0.028961436823010445
aF-0.05877286568284035
aF0.06400106102228165
aF0.030850021168589592
aF-0.05282454192638397
aF-0.08076821267604828
aF0.02935784123837948
aF0.13567416369915009
aF-0.030974872410297394
aF0.12865601480007172
aF-0.03822486847639084
aF-0.04912354424595833
aF-0.0395345613360405
aF0.17869628965854645
aF0.05408988147974014
aF-0.08682400733232498
aF-0.058036670088768005
aF0.03683944419026375
aF0.03167422115802765
aF-0.005833395291119814
aF0.015505152754485607
aF-0.024667037650942802
aF-0.0036321193911135197
aF0.13789992034435272
aF0.08751210570335388
aF0.03507392480969429
aF0.08366803079843521
aF0.20127178728580475
aF0.012195466086268425
aF0.0524057000875473
aF0.06131225824356079
aF-0.03985123708844185
aF-0.08381500095129013
aF-0.17186327278614044
aF0.01422972697764635
aF-0.10644199699163437
aF0.09356727451086044
aF-0.12265791743993759
aF-0.13013122975826263
aF-0.08442097902297974
aF-0.06463062763214111
aF-0.09077621251344681
aF-0.06434279680252075
aF0.058358144015073776
aF-0.054294511675834656
aF-0.015965661033988
aF-0.08136731386184692
aF0.1289128214120865
aF-0.07356385141611099
aF-0.19027970731258392
aF0.041542328894138336
aF0.002175942761823535
aF0.17546968162059784
aF-0.10752926766872406
aF-0.04564119875431061
aF-0.011193882673978806
aF0.07004771381616592
aF-0.004207514692097902
aF0.01866237260401249
aF-0.07838083058595657
aF-0.026541000232100487
aF0.04208992421627045
aF0.11742155253887177
aF-0.040796052664518356
aF-0.1134684607386589
aF0.03579156845808029
aF-0.12054362148046494
aF-0.059775643050670624
aF0.17105254530906677
aF0.03599686548113823
aF-0.0007273086812347174
aF0.04141481593251228
aF-0.11683838814496994
aF-0.07543013244867325
aF-0.1724296361207962
aF-0.0007894765585660934
aF-0.04454626142978668
aF-0.08090527355670929
aF-0.08001136779785156
aa(lp26
F-0.07031343877315521
aF-0.1198446974158287
aF-0.1280927211046219
aF0.14895127713680267
aF0.06200217828154564
aF0.08530692011117935
aF0.03959682211279869
aF-0.12778347730636597
aF0.025166315957903862
aF-0.05606378614902496
aF-0.03524148091673851
aF0.040326282382011414
aF0.016144221648573875
aF-0.03127971291542053
aF0.01516792643815279
aF0.030264705419540405
aF-0.013267146423459053
aF0.15184195339679718
aF-0.061886418610811234
aF0.10218589752912521
aF-0.20900091528892517
aF0.15050803124904633
aF0.11847222596406937
aF-0.04660571739077568
aF-0.03685709089040756
aF-0.15480974316596985
aF-0.04800425469875336
aF0.10305219143629074
aF-0.0804087296128273
aF0.06794644147157669
aF0.039512909948825836
aF0.09961403161287308
aF0.10976102948188782
aF-0.09663980454206467
aF0.12536559998989105
aF0.019840136170387268
aF0.15122710168361664
aF-0.034853462129831314
aF0.012776230461895466
aF0.05082662031054497
aF0.005167824681848288
aF0.12425787001848221
aF-0.012869980186223984
aF-0.18182313442230225
aF-0.06702825427055359
aF-0.03614130988717079
aF0.007256100419908762
aF0.011028827168047428
aF0.025336815044283867
aF0.003464996349066496
aF-0.05783206596970558
aF-0.00019986882398370653
aF0.08860835433006287
aF0.047622911632061005
aF0.13502520322799683
aF0.10040950775146484
aF0.08477029204368591
aF-0.09083434194326401
aF8.798553608357906e-06
aF0.10520809143781662
aF-0.11582934856414795
aF-0.04324641823768616
aF0.07466378808021545
aF0.1384706050157547
aF0.03282098472118378
aF0.06190728396177292
aF0.0508839413523674
aF-0.13742107152938843
aF0.013282686471939087
aF0.13715596497058868
aF-0.06723802536725998
aF0.12966479361057281
aF0.10295690596103668
aF-0.08268367499113083
aF0.030025755986571312
aF0.06549147516489029
aF0.13038025796413422
aF-0.07838711142539978
aF0.08193334192037582
aF-0.11305732280015945
aF0.08685516566038132
aF-0.07811152189970016
aF-0.13284961879253387
aF0.05538073554635048
aF-0.021125132218003273
aF0.16437603533267975
aF-0.04363136738538742
aF-0.05504433065652847
aF-0.029310496523976326
aF-0.1215483769774437
aF0.0516943633556366
aF0.13477306067943573
aF0.12454644590616226
aF-0.07473219931125641
aF-0.06640727072954178
aF0.06338849663734436
aF0.11778233200311661
aF-0.023041842505335808
aF-0.13360072672367096
aF0.11025933921337128
aF0.15890005230903625
aF0.14217397570610046
aF-0.005186814349144697
aF0.01564905047416687
aF0.026574160903692245
aF0.029136449098587036
aF-0.08635581284761429
aF0.00857947301119566
aF0.005250310525298119
aF0.12005218863487244
aF0.06092599034309387
aF-0.030487477779388428
aF0.08887085318565369
aF-0.008325284346938133
aF-0.12057292461395264
aF0.023616645485162735
aF-0.14719116687774658
aF0.052321236580610275
aF0.106717549264431
aF-0.0888993889093399
aF0.074988953769207
aF0.11953634768724442
aF0.08549581468105316
aF-0.11210676282644272
aF0.020937753841280937
aF0.012689823284745216
aF0.04495435580611229
aF0.05494419112801552
aa(lp27
F-0.05020221695303917
aF0.017720382660627365
aF-0.1208079382777214
aF-0.06930039077997208
aF-0.038144368678331375
aF-0.17962583899497986
aF0.08345034718513489
aF0.014551308937370777
aF-0.02130216918885708
aF-0.01234204787760973
aF0.09731435030698776
aF0.05496791750192642
aF-0.23933865129947662
aF0.1545780599117279
aF-0.04256933927536011
aF-0.0014275007415562868
aF0.11553191393613815
aF0.08051320165395737
aF-0.23276041448116302
aF0.03153073415160179
aF-0.02441873960196972
aF-0.027103394269943237
aF-0.005241448059678078
aF-0.02352982573211193
aF-0.018680350854992867
aF-0.08536126464605331
aF0.11851901561021805
aF0.021235739812254906
aF0.0663570761680603
aF0.059936925768852234
aF-0.0368233360350132
aF-0.051536403596401215
aF-0.024300452321767807
aF-0.020917896181344986
aF0.07242557406425476
aF-0.10786458849906921
aF0.14451372623443604
aF-0.025179745629429817
aF0.028163405135273933
aF0.06556998938322067
aF0.01470084860920906
aF0.01631135120987892
aF-0.20197372138500214
aF-0.08147884160280228
aF-0.06519048660993576
aF-0.021630387753248215
aF-0.04929034039378166
aF-0.039883360266685486
aF0.15221509337425232
aF0.08086469024419785
aF-0.0908564031124115
aF0.15234966576099396
aF-0.06615542620420456
aF0.0729554146528244
aF0.05737654119729996
aF0.03213396668434143
aF0.04795839637517929
aF0.0038526777643710375
aF0.025074416771531105
aF0.05502786859869957
aF-0.04274832457304001
aF0.009151599369943142
aF0.10728319734334946
aF0.05751010403037071
aF0.05179658904671669
aF0.0008818447822704911
aF0.12250783294439316
aF-0.07036448270082474
aF-0.07658974826335907
aF0.07492131739854813
aF-0.1239011138677597
aF0.019903428852558136
aF0.036750465631484985
aF0.0573887974023819
aF-0.011104377917945385
aF-0.01377735286951065
aF0.034714169800281525
aF0.07745502144098282
aF0.16945107281208038
aF-0.08549807965755463
aF0.10166336596012115
aF-0.016304515302181244
aF0.057545147836208344
aF-0.1514531672000885
aF-0.026633528992533684
aF0.0545375682413578
aF0.011630947701632977
aF-0.03951667621731758
aF-0.11187055706977844
aF-0.14202626049518585
aF0.02546374686062336
aF-0.09527613967657089
aF0.07930762320756912
aF0.00430521834641695
aF0.043228600174188614
aF0.061346884816884995
aF0.019858943298459053
aF-0.03928991034626961
aF-0.2457447201013565
aF0.18272463977336884
aF-0.10067584365606308
aF0.058308497071266174
aF-0.03332776203751564
aF0.013170829974114895
aF0.06008664146065712
aF0.02720656245946884
aF0.06342201679944992
aF-0.08217225223779678
aF0.06508354097604752
aF0.006811246741563082
aF-0.12286354601383209
aF-0.04099065437912941
aF0.13644032180309296
aF0.024593200534582138
aF-0.13192006945610046
aF-0.19941113889217377
aF-0.03823567181825638
aF0.14390072226524353
aF0.09557849913835526
aF-0.11617451906204224
aF0.08715101331472397
aF-0.06779442727565765
aF-0.09750606119632721
aF-0.0762808695435524
aF-0.07689741998910904
aF-0.059231143444776535
aF-0.0959068313241005
aF0.14823706448078156
aa(lp28
F0.11521102488040924
aF-0.046439748257398605
aF0.09151558578014374
aF0.15290196239948273
aF-0.10673334449529648
aF0.02898476831614971
aF-0.017937345430254936
aF-0.07195161283016205
aF-0.15245278179645538
aF-3.322430347907357e-05
aF-0.008280307054519653
aF0.081789530813694
aF-0.12037080526351929
aF-0.1643325537443161
aF0.15540078282356262
aF-0.06139193847775459
aF0.04575547203421593
aF0.011784619651734829
aF-0.045328833162784576
aF0.10601449757814407
aF-0.014088954776525497
aF-0.06711825728416443
aF-0.104322150349617
aF-0.10525044053792953
aF0.0510965920984745
aF0.05491495504975319
aF-0.06625745445489883
aF-0.057856880128383636
aF0.017120877280831337
aF0.10294710099697113
aF0.1307736039161682
aF-0.04970342665910721
aF-0.01532832719385624
aF0.12330298125743866
aF0.0009301751852035522
aF-0.015291154384613037
aF-0.010771744884550571
aF-0.04096629470586777
aF-0.05531592667102814
aF-0.10020208358764648
aF-0.1314760446548462
aF-0.08488260954618454
aF-0.12237666547298431
aF0.09222230315208435
aF0.07582822442054749
aF0.1397562474012375
aF-0.010929683223366737
aF-0.09124397486448288
aF-0.00703612482175231
aF0.11745863407850266
aF0.045460622757673264
aF-0.106182761490345
aF0.036538150161504745
aF0.0015403837896883488
aF0.0970192402601242
aF0.0976121723651886
aF0.04445641115307808
aF0.18804866075515747
aF0.10039286315441132
aF0.06711248308420181
aF-0.12396543473005295
aF0.05828477814793587
aF0.00010633663623593748
aF0.13975949585437775
aF-0.15184354782104492
aF0.10607434064149857
aF-0.038746628910303116
aF0.12002896517515182
aF-0.002000051084905863
aF-0.12173376977443695
aF0.016717849299311638
aF-0.023906532675027847
aF-0.07439907640218735
aF-0.13837076723575592
aF-0.10431499779224396
aF0.022594261914491653
aF0.10562917590141296
aF-0.06774523109197617
aF0.12963223457336426
aF0.12539081275463104
aF0.1332143247127533
aF-0.03415067121386528
aF0.033471670001745224
aF0.0992545410990715
aF0.056558605283498764
aF-0.14043235778808594
aF-0.02711198665201664
aF-0.027401747182011604
aF-0.021800152957439423
aF0.012668868526816368
aF-0.14091303944587708
aF-0.12362868338823318
aF-0.028423525393009186
aF-0.030278604477643967
aF-0.006603555288165808
aF-0.04699788987636566
aF0.04553678259253502
aF-0.04065153747797012
aF-0.06963150203227997
aF-0.024787772446870804
aF0.1596112847328186
aF0.0635138750076294
aF-0.044151920825242996
aF-0.1046794131398201
aF0.09150733053684235
aF0.09159062057733536
aF-0.12634670734405518
aF-0.049283649772405624
aF-0.09597048908472061
aF0.07543841004371643
aF0.04794616624712944
aF0.15277612209320068
aF0.058192916214466095
aF-0.00015962542966008186
aF-0.09716751426458359
aF0.11116031557321548
aF0.07644602656364441
aF0.07635170221328735
aF0.005039525683969259
aF-0.012073572725057602
aF0.10094355046749115
aF0.0655730590224266
aF0.12213855981826782
aF-0.14367038011550903
aF-0.015870319679379463
aF-0.10353860259056091
aF-0.007773747202008963
aF0.17323198914527893
aa(lp29
F-0.030427923426032066
aF-0.04655608907341957
aF-0.09218917042016983
aF0.020069073885679245
aF0.02082863822579384
aF0.05282183736562729
aF0.049927376210689545
aF0.09711694717407227
aF-0.06334614008665085
aF-0.02990064024925232
aF-0.035673439502716064
aF-0.017883891239762306
aF0.16292575001716614
aF0.11592002213001251
aF0.10982487350702286
aF-0.013052521273493767
aF0.09519913047552109
aF0.07322217524051666
aF-0.11794094741344452
aF0.07173583656549454
aF0.16016961634159088
aF-0.007090034428983927
aF-0.20768505334854126
aF-0.03707972541451454
aF-0.11308851093053818
aF0.0554281584918499
aF-0.13166570663452148
aF-0.07002999633550644
aF0.08919022977352142
aF-0.02719639427959919
aF0.17736487090587616
aF-0.010565674863755703
aF0.0036779730580747128
aF0.09645993262529373
aF0.0682360827922821
aF-0.04533707723021507
aF-0.12950025498867035
aF-0.14635919034481049
aF-0.1483285129070282
aF0.044124070554971695
aF-0.06623494625091553
aF0.0034517752937972546
aF0.18918266892433167
aF0.03914818540215492
aF0.011054180562496185
aF0.094027578830719
aF-0.041703615337610245
aF0.03429777920246124
aF-0.024200307205319405
aF-0.03103272244334221
aF0.024122949689626694
aF-0.15392093360424042
aF0.03464097902178764
aF0.019835077226161957
aF-0.13933372497558594
aF0.04601294919848442
aF-0.020175956189632416
aF0.03684397414326668
aF0.09221883118152618
aF0.010758236050605774
aF-0.19378302991390228
aF-0.05615459382534027
aF0.12115129083395004
aF-0.21637408435344696
aF0.0935712456703186
aF0.07034653425216675
aF-0.09414488822221756
aF0.030886398628354073
aF0.046434834599494934
aF-0.0665043517947197
aF0.17821912467479706
aF-0.06435126066207886
aF0.026230987161397934
aF0.05731719732284546
aF-0.05660826712846756
aF-0.0497107207775116
aF-0.022128131240606308
aF-0.17446769773960114
aF-0.05210248380899429
aF0.11181222647428513
aF0.15625518560409546
aF-0.10339891165494919
aF0.10553308576345444
aF0.004307138733565807
aF-0.013700474053621292
aF-0.014528726227581501
aF0.09055084735155106
aF0.09344454854726791
aF0.0004265385214239359
aF-0.045468538999557495
aF0.04852250963449478
aF-0.18422476947307587
aF0.13183189928531647
aF0.08125760406255722
aF-0.039041392505168915
aF0.0017737570451572537
aF0.06711769104003906
aF-0.02532128430902958
aF-0.013682796619832516
aF-0.0450713224709034
aF0.07095986604690552
aF-0.1773357093334198
aF-0.007022607605904341
aF-0.03609345853328705
aF-0.024495793506503105
aF-0.06405706703662872
aF-0.04866241291165352
aF-0.009980208240449429
aF-0.042125947773456573
aF0.014717204496264458
aF0.06863769888877869
aF0.19321589171886444
aF0.15069638192653656
aF0.029979759827256203
aF-0.041229765862226486
aF0.08381547033786774
aF-0.05503074452280998
aF0.05410308763384819
aF0.04304838925600052
aF0.0565435029566288
aF-0.00358078395947814
aF0.09766461700201035
aF0.11390002071857452
aF-0.053974661976099014
aF0.14049866795539856
aF-0.0478278249502182
aF-0.04341315105557442
aF-0.02066430263221264
aa(lp30
F0.06720827519893646
aF0.019375385716557503
aF-0.09127157926559448
aF-0.020751183852553368
aF0.000398183154175058
aF0.0017569821793586016
aF-0.046119481325149536
aF-0.13769005239009857
aF0.12815533578395844
aF0.0745442733168602
aF-0.012588297948241234
aF0.09613429009914398
aF0.21151791512966156
aF0.1600925177335739
aF-0.058812662959098816
aF-0.054373156279325485
aF-0.005042961798608303
aF-0.05842186510562897
aF-0.05638539418578148
aF0.05988794192671776
aF0.0007205141009762883
aF-0.11349684745073318
aF0.03862021863460541
aF-0.0105747040361166
aF-0.10379138588905334
aF0.017039313912391663
aF0.026902036741375923
aF0.022399043664336205
aF0.12998175621032715
aF0.010414701886475086
aF-0.1257467269897461
aF0.09006976336240768
aF0.01645461842417717
aF-0.005511672236025333
aF-0.10307995229959488
aF-0.024431895464658737
aF-0.03021569550037384
aF0.07766852527856827
aF0.07963606715202332
aF0.059082452207803726
aF-0.1261666864156723
aF0.04865655675530434
aF-0.030583100393414497
aF-0.036828503012657166
aF0.11419648677110672
aF0.04892507568001747
aF0.08733894675970078
aF-0.07927761226892471
aF0.05199228599667549
aF0.134278804063797
aF0.04143145680427551
aF-0.08800198137760162
aF-0.02848614938557148
aF0.12585079669952393
aF-0.11206023395061493
aF-0.03801988065242767
aF-0.000307518697809428
aF0.025297250598669052
aF-0.16556000709533691
aF0.053552646189928055
aF0.18447981774806976
aF-0.041576091200113297
aF0.16850942373275757
aF-0.02314492128789425
aF-0.1496567279100418
aF0.01342056505382061
aF0.1640598624944687
aF0.008102227933704853
aF0.05621815845370293
aF0.09937264770269394
aF0.11256563663482666
aF0.020098719745874405
aF0.013828162103891373
aF0.07047353684902191
aF0.033713798969984055
aF-0.06368957459926605
aF0.027105730026960373
aF0.03652263432741165
aF-0.25065362453460693
aF0.03837785869836807
aF0.23382002115249634
aF0.03865773230791092
aF0.12888069450855255
aF-0.05784086138010025
aF-0.007499522063881159
aF0.026984309777617455
aF0.05383770912885666
aF-0.004858949221670628
aF0.048292484134435654
aF0.06611854583024979
aF0.16151541471481323
aF-0.13391347229480743
aF-0.0367048904299736
aF0.19552189111709595
aF-0.1544933319091797
aF-0.021295597776770592
aF-0.1231297180056572
aF-0.08546289056539536
aF0.007131165359169245
aF-0.036744385957717896
aF0.03898400813341141
aF-0.05759579315781593
aF-0.05696902796626091
aF0.03484877943992615
aF-0.04443827643990517
aF-0.041294462978839874
aF-0.11248929798603058
aF-0.012834901921451092
aF0.14949092268943787
aF0.011827148497104645
aF0.036017414182424545
aF-0.06547679752111435
aF-0.019076529890298843
aF-0.21118438243865967
aF0.05418389290571213
aF-0.02309604547917843
aF-0.0598866268992424
aF0.0037444287445396185
aF0.07369963079690933
aF0.04541989788413048
aF0.015182207338511944
aF0.015160842798650265
aF-0.11484114080667496
aF0.10614179819822311
aF0.0015187399694696069
aF-0.02858867309987545
aF0.14821067452430725
aF-0.11269811540842056
aa(lp31
F-0.045366257429122925
aF0.02936946228146553
aF-0.003244546474888921
aF-0.16040398180484772
aF0.0585685670375824
aF-0.055613160133361816
aF-0.1409188210964203
aF0.05570443347096443
aF0.08195118606090546
aF0.06730733811855316
aF0.09868061542510986
aF0.07611975073814392
aF-0.05790450796484947
aF0.033172473311424255
aF0.0898890420794487
aF0.013459333218634129
aF-0.1412402242422104
aF-0.09615760296583176
aF-0.09985962510108948
aF0.027780350297689438
aF-0.07208424806594849
aF-0.019651295617222786
aF-0.002172977663576603
aF-0.1584579050540924
aF-0.10829733312129974
aF0.11206924170255661
aF0.06859922409057617
aF0.12129276990890503
aF0.1298975944519043
aF-0.0034065176732838154
aF-0.028636200353503227
aF0.08319760113954544
aF-0.11898592114448547
aF-0.15745535492897034
aF-0.09908309578895569
aF-0.07202129065990448
aF-0.05603693053126335
aF0.08251995593309402
aF-0.06099778041243553
aF0.1534935086965561
aF-0.12616871297359467
aF-0.13182415068149567
aF-0.021872621029615402
aF0.019565219059586525
aF-0.11692600697278976
aF0.008658293634653091
aF-0.006383728701621294
aF-0.04539159685373306
aF0.16012617945671082
aF0.09303788840770721
aF-0.06072508916258812
aF0.047688115388154984
aF-0.060340963304042816
aF-0.14437223970890045
aF-0.09979142993688583
aF-0.08042385429143906
aF0.0978969931602478
aF-0.0007879043696448207
aF-0.09031395614147186
aF-0.09059471637010574
aF0.06640295684337616
aF-0.08925978094339371
aF0.04292634502053261
aF-0.030215274542570114
aF-0.0733710378408432
aF-0.01598961651325226
aF0.0017127383034676313
aF-0.0842924565076828
aF-0.09667196869850159
aF0.19106513261795044
aF0.11475507915019989
aF-0.0006136373267509043
aF-0.09555432945489883
aF0.04889804124832153
aF0.008372573181986809
aF-0.011537742801010609
aF0.21990792453289032
aF-0.07425223290920258
aF-0.09391546994447708
aF0.11417559534311295
aF0.028984839096665382
aF-0.11713040620088577
aF-0.08487758040428162
aF0.13998782634735107
aF0.026518862694501877
aF0.07860258221626282
aF0.06434446573257446
aF-0.040028639137744904
aF-0.0014634905382990837
aF0.008284122683107853
aF0.11070241034030914
aF0.18552438914775848
aF0.0005750981508754194
aF0.017587732523679733
aF-0.15043681859970093
aF-0.12528148293495178
aF0.035842832177877426
aF-0.13231459259986877
aF-0.05098283290863037
aF-0.08109215646982193
aF-0.1097685694694519
aF0.07530461996793747
aF-0.04144807904958725
aF-0.03411096706986427
aF0.041847169399261475
aF0.0197178665548563
aF-0.021162504330277443
aF0.14450250566005707
aF0.1034667044878006
aF0.12719900906085968
aF-0.07392193377017975
aF0.06673066318035126
aF0.08830052614212036
aF0.007179830688983202
aF0.11997177451848984
aF-0.07953690737485886
aF-0.05465499684214592
aF0.11318487673997879
aF-0.09213142096996307
aF0.061616137623786926
aF0.0133881950750947
aF0.10835320502519608
aF-0.061236850917339325
aF0.01766272261738777
aF0.060162998735904694
aF-0.0575864240527153
aF0.07571808993816376
aF0.08501052856445312
aa(lp32
F-0.04782361909747124
aF0.08794243633747101
aF0.014852778054773808
aF0.0027413764037191868
aF-0.025691663846373558
aF0.04262339696288109
aF0.08746103197336197
aF0.15271295607089996
aF0.09051165729761124
aF-0.03408210724592209
aF-0.09662830084562302
aF0.04227350652217865
aF0.0014540827833116055
aF-0.10134740173816681
aF-0.14578421413898468
aF0.03632834553718567
aF0.06108745560050011
aF-0.03034711256623268
aF-0.1227569729089737
aF-0.10042816400527954
aF-0.11330646276473999
aF0.05438375845551491
aF-0.14870645105838776
aF-0.10507079213857651
aF0.04090045392513275
aF0.11645767837762833
aF0.020838716998696327
aF0.022188233211636543
aF0.016560886055231094
aF0.018979540094733238
aF0.02014276571571827
aF0.024052590131759644
aF0.014691571705043316
aF0.08449587225914001
aF0.015538666397333145
aF-0.004107879474759102
aF0.06307683885097504
aF-0.040996015071868896
aF-0.03394163027405739
aF0.03707146644592285
aF0.010434616357088089
aF-0.05725126340985298
aF-0.07046589255332947
aF0.048267532140016556
aF0.0727531835436821
aF0.009817651472985744
aF0.0363042838871479
aF0.08974377065896988
aF-0.012332363985478878
aF-0.0025342744775116444
aF0.07214014232158661
aF-0.1746082901954651
aF0.004215782042592764
aF0.13287591934204102
aF-0.08322187513113022
aF-0.07022946327924728
aF-0.10422130674123764
aF-0.08937763422727585
aF-0.12110801786184311
aF0.021722717210650444
aF0.11691398918628693
aF0.16961801052093506
aF-0.19223889708518982
aF0.021100830286741257
aF-0.27511703968048096
aF-0.06091921776533127
aF0.06299447268247604
aF0.08276877552270889
aF0.03192394599318504
aF-0.03703628480434418
aF0.0622672513127327
aF-0.03599555045366287
aF-0.0444345660507679
aF-0.08246510475873947
aF-0.021619675680994987
aF-0.028406454250216484
aF0.027843212708830833
aF-0.02083088457584381
aF-0.1285932958126068
aF0.1116596907377243
aF0.1708568036556244
aF-0.07791310548782349
aF0.04274822026491165
aF-0.033823005855083466
aF0.010557565838098526
aF0.013987761922180653
aF-0.05565788969397545
aF-0.03924180567264557
aF0.020999105647206306
aF0.015260100364685059
aF-0.02427327260375023
aF-0.16839754581451416
aF-0.04241720587015152
aF0.24942253530025482
aF0.054414719343185425
aF0.14653868973255157
aF-0.047682251781225204
aF-0.005168234929442406
aF0.20149710774421692
aF-0.019749270752072334
aF-0.08128737658262253
aF-0.03328448161482811
aF-0.05147215351462364
aF-0.09696082025766373
aF0.021221255883574486
aF0.0544668473303318
aF0.1395653933286667
aF-0.21471887826919556
aF-0.011528926901519299
aF0.16123011708259583
aF0.2000250518321991
aF-0.098116934299469
aF0.08831261098384857
aF0.1944524645805359
aF-0.04162440076470375
aF0.05885070934891701
aF-0.035466622561216354
aF-0.07743120193481445
aF-0.012887335382401943
aF0.05796785652637482
aF-0.02954689972102642
aF0.05487353354692459
aF0.015167086385190487
aF-0.002388973953202367
aF0.10594739019870758
aF0.02686646208167076
aF-0.033388759940862656
aF0.010277105495333672
aa(lp33
F0.12772643566131592
aF0.083986297249794
aF0.028191952034831047
aF0.026880238205194473
aF0.06621946394443512
aF0.042395103722810745
aF0.0779191255569458
aF0.04400959238409996
aF-0.059971366077661514
aF-0.00912417471408844
aF-0.03992433100938797
aF0.14198839664459229
aF0.05754277482628822
aF-0.15633779764175415
aF0.02717701718211174
aF-0.0721258893609047
aF-0.12652070820331573
aF0.1329677551984787
aF-0.05304857715964317
aF0.036530233919620514
aF-0.05120646953582764
aF-0.04167355224490166
aF-0.21841396391391754
aF0.010618729516863823
aF-0.019027333706617355
aF0.1018524169921875
aF-0.09916307777166367
aF0.0047170245088636875
aF-0.04060622677206993
aF0.059216443449258804
aF0.05702093243598938
aF-0.050029974430799484
aF-0.029769133776426315
aF-0.06491030752658844
aF-0.07829824090003967
aF-0.03474411740899086
aF0.010916956700384617
aF-0.03533794358372688
aF-0.08927478641271591
aF-0.1068478375673294
aF-0.03159061819314957
aF-0.07940538972616196
aF0.09543907642364502
aF0.1352672576904297
aF0.11552157253026962
aF0.11766348779201508
aF-0.14913494884967804
aF-0.03985537961125374
aF-0.10480459779500961
aF0.048201583325862885
aF0.10600142180919647
aF-0.0771995335817337
aF-0.0075831119902431965
aF-0.08005824685096741
aF0.01421971432864666
aF-0.0032780247274786234
aF-0.053432729095220566
aF0.10769140720367432
aF0.08058381080627441
aF0.045403383672237396
aF0.10202439874410629
aF-0.08833856880664825
aF0.1180199682712555
aF0.15007555484771729
aF-0.2210245132446289
aF0.01701616682112217
aF0.23197641968727112
aF0.061328738927841187
aF0.10807089507579803
aF0.12074659764766693
aF-0.03648848459124565
aF0.032136328518390656
aF0.0900690108537674
aF-0.06959722191095352
aF0.0011346640530973673
aF-0.06309432536363602
aF-0.003453565062955022
aF0.10000422596931458
aF-0.04466702789068222
aF-0.022722803056240082
aF0.0031663766130805016
aF-0.048864029347896576
aF-0.0284977238625288
aF0.0824807733297348
aF-0.09512115269899368
aF-0.05526892840862274
aF-0.06331878155469894
aF0.11967828869819641
aF-0.08981781452894211
aF-0.004517463035881519
aF0.06938233226537704
aF-0.14654745161533356
aF-0.060781605541706085
aF-0.06174732744693756
aF0.07948996871709824
aF0.071029894053936
aF-0.15361423790454865
aF-0.150112122297287
aF0.09290754795074463
aF0.036113303154706955
aF-0.018467802554368973
aF0.02333267778158188
aF-0.08620686829090118
aF0.046203844249248505
aF0.010533930733799934
aF0.1893656998872757
aF-0.05407243221998215
aF-0.08550303429365158
aF-0.010036628693342209
aF-0.12266986817121506
aF-0.03736581653356552
aF-0.039404407143592834
aF0.18644632399082184
aF0.11474033445119858
aF-0.15341468155384064
aF0.00021693587768822908
aF0.007054442539811134
aF0.06107530742883682
aF0.043730705976486206
aF-0.019116057083010674
aF-0.10989516973495483
aF-0.0828174352645874
aF-0.022854844108223915
aF-0.15459322929382324
aF0.106878861784935
aF-0.060461629182100296
aF0.12562264502048492
aF-0.07382122427225113
aa(lp34
F-0.1050439178943634
aF0.00202422053553164
aF0.11458971351385117
aF0.017314810305833817
aF-0.004624046850949526
aF-0.11203746497631073
aF-0.08445995301008224
aF-0.05790947005152702
aF-0.023460261523723602
aF0.006072155199944973
aF-0.008775835856795311
aF0.05316983908414841
aF-0.17899906635284424
aF0.09559929370880127
aF0.01223774440586567
aF-0.03906454145908356
aF-0.052176233381032944
aF0.05280345678329468
aF-0.07978932559490204
aF-0.02245953679084778
aF0.07091311365365982
aF0.03974523767828941
aF-0.025788508355617523
aF0.040664106607437134
aF-0.062446869909763336
aF-0.07844014465808868
aF0.12287798523902893
aF0.11167912185192108
aF0.032051876187324524
aF0.06794077157974243
aF-0.07659514993429184
aF0.02685611881315708
aF0.06647098809480667
aF-0.18697668612003326
aF0.17684027552604675
aF-0.12449193745851517
aF-0.012893282808363438
aF-0.009421794675290585
aF-0.010422870516777039
aF0.00785547774285078
aF-0.08650511503219604
aF-0.1012873724102974
aF-0.1473941057920456
aF-0.058258023113012314
aF-0.008429666049778461
aF-0.03736679255962372
aF-0.15062646567821503
aF0.006663257721811533
aF0.11580635607242584
aF0.02516970969736576
aF-0.03496101126074791
aF-0.07650656253099442
aF0.11631041765213013
aF0.07626955211162567
aF-0.01940266788005829
aF-0.05625082924962044
aF0.053507622331380844
aF-0.08628051728010178
aF-0.08819358795881271
aF0.1279921531677246
aF0.056776728481054306
aF0.08585959672927856
aF0.03134912624955177
aF0.07633562386035919
aF-0.04541392996907234
aF-0.014564823359251022
aF0.11069466918706894
aF-0.037196602672338486
aF-0.0888548418879509
aF0.15005183219909668
aF-0.023432794958353043
aF0.07181692868471146
aF-0.055486515164375305
aF0.07271601259708405
aF-0.007638455834239721
aF0.1618872582912445
aF0.2776186764240265
aF-0.15034395456314087
aF0.06556844711303711
aF0.007307214662432671
aF-0.007238863967359066
aF-0.019937735050916672
aF-0.08901060372591019
aF0.10430338978767395
aF-0.09976118803024292
aF0.13774986565113068
aF0.15094786882400513
aF0.03315792232751846
aF-0.13854916393756866
aF-0.14797648787498474
aF0.020037686452269554
aF0.12134483456611633
aF0.08837038278579712
aF-0.06521618366241455
aF-0.10836095362901688
aF-0.1529860496520996
aF0.0811104103922844
aF-0.06681908667087555
aF-0.17054255306720734
aF0.03821033611893654
aF0.12098212540149689
aF0.18209534883499146
aF0.0006013942766003311
aF-0.05601624771952629
aF-0.04557402804493904
aF0.11203844845294952
aF0.04169470816850662
aF0.018416903913021088
aF-0.10685664415359497
aF0.012287328951060772
aF-0.09880702942609787
aF-0.005544492043554783
aF-0.06444121897220612
aF0.04929833114147186
aF0.03135127201676369
aF-0.1626334935426712
aF-0.09834255278110504
aF-0.051579780876636505
aF0.08538895100355148
aF0.032118748873472214
aF0.1411852240562439
aF-0.04654112830758095
aF0.08248495310544968
aF-0.03702350705862045
aF-0.013773803599178791
aF-0.017774447798728943
aF0.02992825396358967
aF0.048228729516267776
aa(lp35
F0.11412303149700165
aF-0.00944324117153883
aF0.010234219953417778
aF0.05645137280225754
aF-0.015400377102196217
aF0.08678578585386276
aF-0.03195668011903763
aF0.15821868181228638
aF-0.019047247245907784
aF-0.12747269868850708
aF-0.1538502424955368
aF0.06547917425632477
aF-0.05906391516327858
aF0.09937771409749985
aF0.03511795029044151
aF0.045203350484371185
aF0.11404377967119217
aF0.003858699928969145
aF0.047464895993471146
aF-0.04835139960050583
aF0.05558694899082184
aF-0.35150524973869324
aF-0.014875387772917747
aF0.009407569654285908
aF0.044663574546575546
aF0.0005228864029049873
aF0.07596379518508911
aF-0.02781992219388485
aF0.05015116557478905
aF0.025122052058577538
aF0.04429532214999199
aF0.015602569095790386
aF-0.04664526507258415
aF0.07197543978691101
aF0.11592286080121994
aF-0.027166644111275673
aF-0.09779593348503113
aF0.07703354209661484
aF-0.1295439451932907
aF-0.14814189076423645
aF-0.056390248239040375
aF0.05772106721997261
aF0.08954022079706192
aF0.02162877656519413
aF-0.08247791975736618
aF-0.06932736188173294
aF-0.07847921550273895
aF0.12372063100337982
aF-0.05031472444534302
aF-0.07039904594421387
aF0.0607336089015007
aF-0.1221885085105896
aF0.010939278639853
aF-0.022349994629621506
aF-0.03706353157758713
aF0.02815866470336914
aF-0.1649601012468338
aF-0.11325854063034058
aF-0.07633568346500397
aF0.04214802011847496
aF0.18394649028778076
aF0.18971961736679077
aF-0.024587253108620644
aF-0.05468156561255455
aF-0.03921293467283249
aF-0.03906372934579849
aF0.07784353941679001
aF-0.00038155223592184484
aF0.03869260102510452
aF0.019824793562293053
aF0.08105852454900742
aF-0.07179588079452515
aF-0.06840824335813522
aF-0.04810340330004692
aF-0.037238046526908875
aF-0.06406214833259583
aF-0.110655277967453
aF0.07568571716547012
aF-0.11398046463727951
aF0.057503841817379
aF0.14390349388122559
aF-0.060316186398267746
aF-0.07657068967819214
aF-0.023211579769849777
aF0.019161121919751167
aF-0.020488647744059563
aF0.03047957830131054
aF-0.06787482649087906
aF-0.0005165020702406764
aF0.03737316653132439
aF-0.06244649738073349
aF0.008288309909403324
aF-0.06069346144795418
aF0.12499111145734787
aF0.047896672040224075
aF-0.02724337764084339
aF-0.1912490278482437
aF0.1112019270658493
aF0.10018850117921829
aF0.06156919151544571
aF0.07206396758556366
aF-0.011221418157219887
aF-0.005349918734282255
aF0.008243952877819538
aF-0.006260520312935114
aF0.025905951857566833
aF-0.032369233667850494
aF-0.13254113495349884
aF-0.08767758309841156
aF0.03152371197938919
aF0.13028261065483093
aF-0.08619712293148041
aF-0.015342163853347301
aF0.07708506286144257
aF0.011155160143971443
aF-0.007762108463793993
aF-0.02952433191239834
aF0.09722457826137543
aF0.13931195437908173
aF-0.018988996744155884
aF-0.10679961740970612
aF0.10356020927429199
aF-0.04736943542957306
aF-0.3646899163722992
aF-0.008328713476657867
aF-0.02869489975273609
aF-0.03787943720817566
aF0.07271985709667206
aa(lp36
F-0.1630481630563736
aF0.09662619978189468
aF0.03104298748075962
aF0.053323615342378616
aF-0.08863414824008942
aF0.13308918476104736
aF-0.17240780591964722
aF0.029684459790587425
aF0.07325015962123871
aF0.05748668685555458
aF-0.14944130182266235
aF-0.12740746140480042
aF-0.006210044492036104
aF0.13677550852298737
aF0.0038693773094564676
aF0.03328395634889603
aF-0.11303220689296722
aF0.039397187530994415
aF0.03607495129108429
aF0.07607220113277435
aF-0.021185774356126785
aF0.07886321097612381
aF-0.08958815038204193
aF-0.1124359667301178
aF0.012675722129642963
aF-0.045480795204639435
aF0.12028460204601288
aF-0.029030581936240196
aF-0.05161011964082718
aF-0.06521304696798325
aF0.08788952231407166
aF-0.03897098824381828
aF-0.0658688023686409
aF0.004848250653594732
aF0.020359333604574203
aF-0.15630294382572174
aF-0.11935488134622574
aF0.1461428701877594
aF0.11181101948022842
aF-0.03471091762185097
aF-0.03912636637687683
aF0.0411452017724514
aF-0.07244910299777985
aF0.1366911381483078
aF-0.04169878736138344
aF-0.04422415420413017
aF0.0409611314535141
aF-0.14802195131778717
aF-0.042560383677482605
aF0.1425410509109497
aF0.02262699417769909
aF-0.021721666678786278
aF-0.03130839020013809
aF-0.12659473717212677
aF-0.11635776609182358
aF-0.11056452244520187
aF0.17069315910339355
aF-0.061522163450717926
aF0.07527165859937668
aF-0.04421771690249443
aF-0.007118789944797754
aF0.02109631337225437
aF0.09096124023199081
aF0.17906968295574188
aF-0.09135204553604126
aF0.10081463307142258
aF0.07892849296331406
aF0.0763593465089798
aF-0.05088432878255844
aF0.12266884744167328
aF-0.03888846933841705
aF-0.07726842910051346
aF0.017152827233076096
aF0.09837926179170609
aF0.015801524743437767
aF0.09308397769927979
aF0.12384185194969177
aF0.04801829904317856
aF0.05979090929031372
aF-0.141309455037117
aF0.024483488872647285
aF0.10486355423927307
aF-0.0543908029794693
aF0.10272801667451859
aF-0.06913183629512787
aF-0.08997316658496857
aF0.15510495007038116
aF0.1274210512638092
aF-0.044389355927705765
aF-0.03110191971063614
aF0.11783672869205475
aF0.12030830979347229
aF0.11504176259040833
aF0.07101411372423172
aF-0.00820217840373516
aF0.05582106113433838
aF-0.030431058257818222
aF-0.04788851737976074
aF-0.00910500343888998
aF0.06816457211971283
aF-0.14850978553295135
aF0.11947209388017654
aF0.09063167870044708
aF0.032303303480148315
aF-0.025644266977906227
aF0.04736173897981644
aF0.11599918454885483
aF-0.05510644242167473
aF-0.1370657980442047
aF-0.11098186671733856
aF-0.08786246180534363
aF-0.11881744116544724
aF-0.12548398971557617
aF-0.06630802899599075
aF0.0336439348757267
aF-0.05533047392964363
aF0.017489613965153694
aF-0.03763490542769432
aF-0.017495853826403618
aF-0.011229533702135086
aF0.14207130670547485
aF-0.047801852226257324
aF0.11165349185466766
aF-0.14631621539592743
aF-0.0577709786593914
aF-0.09118898212909698
aF0.08299263566732407
aF0.01675490103662014
aa(lp37
F-0.035199690610170364
aF-0.04066389426589012
aF-0.14921018481254578
aF0.1629236787557602
aF0.16303110122680664
aF0.08156672865152359
aF-0.04459857940673828
aF0.034391552209854126
aF-0.07544108480215073
aF-0.03465976566076279
aF0.09097491204738617
aF0.05176090821623802
aF-0.0003821132704615593
aF0.15897396206855774
aF-0.11514624953269958
aF-0.07702897489070892
aF0.02776387520134449
aF0.09589823335409164
aF-0.053139541298151016
aF0.05972055345773697
aF0.03478270769119263
aF0.003684873227030039
aF-0.1482500433921814
aF-0.0632207840681076
aF-0.06847845017910004
aF-0.10629700869321823
aF-0.0937436893582344
aF0.035052135586738586
aF-0.048886291682720184
aF0.0172440093010664
aF-0.023892704397439957
aF-0.03842775523662567
aF-0.08664139360189438
aF0.0846070796251297
aF-0.13298195600509644
aF0.029792197048664093
aF-0.053150273859500885
aF-0.1501348912715912
aF0.08524315804243088
aF0.1474854052066803
aF-0.021004633978009224
aF0.0392567440867424
aF-0.060235701501369476
aF-0.1105106770992279
aF0.13130640983581543
aF-0.07499156892299652
aF0.11023688316345215
aF-0.03763187676668167
aF-0.02497921884059906
aF-0.04940527305006981
aF-0.13919790089130402
aF0.07574716210365295
aF0.04945856332778931
aF0.08469627797603607
aF0.06291025131940842
aF-0.04309031367301941
aF-0.051351264119148254
aF0.17450083792209625
aF0.10339542478322983
aF0.002016548765823245
aF-0.16893567144870758
aF0.023593686521053314
aF0.02814832143485546
aF-0.09522117674350739
aF0.07614006102085114
aF0.022010309621691704
aF-0.037458837032318115
aF-0.006058960221707821
aF-0.013998148962855339
aF-0.06414974480867386
aF0.004641443490982056
aF-0.0757996216416359
aF-0.037929654121398926
aF-0.07918812334537506
aF0.0865839421749115
aF0.11511905491352081
aF-0.19029918313026428
aF-0.039131730794906616
aF0.03679339215159416
aF-0.13784204423427582
aF-0.04534756764769554
aF0.08542193472385406
aF-0.05645260214805603
aF0.053284257650375366
aF0.021340997889637947
aF0.06273941695690155
aF-0.12589852511882782
aF-0.09765004366636276
aF-0.08393018692731857
aF-0.05189843848347664
aF0.1196664422750473
aF-0.11521925777196884
aF-0.01960894837975502
aF0.004742268938571215
aF0.14064139127731323
aF0.01069440133869648
aF-0.027147281914949417
aF0.1797700822353363
aF-0.18313628435134888
aF-0.05847912281751633
aF0.09965257346630096
aF0.04540524631738663
aF-0.040121614933013916
aF0.11523497849702835
aF0.15392087399959564
aF0.03648056089878082
aF0.03367851302027702
aF0.05594886466860771
aF-0.08862244337797165
aF-0.198629230260849
aF-0.04169546440243721
aF0.0767025277018547
aF0.1452835649251938
aF0.04559833183884621
aF-0.12970058619976044
aF-0.07554540038108826
aF0.07578284293413162
aF-0.060220133513212204
aF0.06769179552793503
aF0.08444066345691681
aF-0.0008584405877627432
aF0.05652661249041557
aF0.0269524697214365
aF-0.09752523899078369
aF0.01787094958126545
aF0.04216654971241951
aF-0.14673176407814026
aF0.12223038822412491
aa(lp38
F0.10429652035236359
aF0.006657437887042761
aF-0.11174266040325165
aF0.2708120346069336
aF0.0773242712020874
aF0.03542880341410637
aF0.13436216115951538
aF-0.2103811353445053
aF0.026486054062843323
aF0.01328049786388874
aF0.13962224125862122
aF-0.07461513578891754
aF0.24790488183498383
aF0.07445713877677917
aF0.0781257301568985
aF-0.00138585246168077
aF0.12492464482784271
aF-0.07935347408056259
aF0.09084932506084442
aF0.22460003197193146
aF0.15565316379070282
aF0.0592130571603775
aF0.07415252178907394
aF0.08861248940229416
aF-0.06060730665922165
aF0.019376149401068687
aF-0.07718577980995178
aF0.015190184116363525
aF0.05860326439142227
aF-0.030429145321249962
aF0.02178383059799671
aF0.01732069067656994
aF-0.002552126068621874
aF0.06908126920461655
aF0.056838784366846085
aF-0.08429817855358124
aF-0.07416773587465286
aF0.06753351539373398
aF-0.036833081394433975
aF0.11142642796039581
aF-0.01023750752210617
aF0.0471469983458519
aF0.15760250389575958
aF-0.0004997425130568445
aF-0.03661154583096504
aF-0.05252663418650627
aF0.08353099972009659
aF-0.032328154891729355
aF0.016163460910320282
aF-0.05210508033633232
aF-0.02514304220676422
aF0.07326590269804001
aF-0.01858551613986492
aF-0.05800727754831314
aF-0.04102640599012375
aF-0.12828518450260162
aF0.0009474614635109901
aF0.04789480194449425
aF0.11183227598667145
aF-0.0008884873823262751
aF0.04918760061264038
aF-0.11502479016780853
aF0.04320406913757324
aF0.008447494357824326
aF-0.012932070530951023
aF-0.058156080543994904
aF0.0374731570482254
aF0.009225188754498959
aF-0.0007052090368233621
aF0.005712226033210754
aF0.03470339998602867
aF-0.009154853411018848
aF-0.09129326045513153
aF0.0017436881316825747
aF-0.10556644201278687
aF0.06155778095126152
aF-0.14805211126804352
aF0.004957951605319977
aF-0.029100311920046806
aF0.09067521244287491
aF-0.09515616297721863
aF0.008528991602361202
aF0.02323409914970398
aF0.030367949977517128
aF0.010883980430662632
aF-0.0019617262296378613
aF-0.040862273424863815
aF0.010813368484377861
aF0.02759677730500698
aF-0.04877616465091705
aF0.14044366776943207
aF-0.0830022469162941
aF-0.12745077908039093
aF-0.17045958340168
aF-0.1275300532579422
aF0.037763554602861404
aF0.16364914178848267
aF-0.019305098801851273
aF-0.14774136245250702
aF0.034746311604976654
aF0.04506068304181099
aF-0.020399287343025208
aF0.018771706148982048
aF0.12615129351615906
aF-0.007428711745887995
aF-0.09053871780633926
aF-0.002768928185105324
aF0.014896521344780922
aF0.09726189076900482
aF-0.08047723025083542
aF-0.16922956705093384
aF-0.05767250806093216
aF-0.1552824229001999
aF-0.04399554803967476
aF0.19551347196102142
aF0.12212716042995453
aF0.09296844899654388
aF-0.19677715003490448
aF-0.1456003338098526
aF0.05766300484538078
aF0.011835290119051933
aF-0.06576807796955109
aF-0.05833828076720238
aF0.029558341950178146
aF0.048682715743780136
aF0.05038278549909592
aF-0.009948291815817356
aF-0.012067627161741257
aa(lp39
F-0.08391550928354263
aF0.08842694014310837
aF-0.12741662561893463
aF0.06629932671785355
aF-0.09136155247688293
aF-0.059083983302116394
aF0.05535139888525009
aF-0.16274461150169373
aF-0.047861963510513306
aF0.15537385642528534
aF-0.12636680901050568
aF0.11682138592004776
aF0.053798772394657135
aF0.18302656710147858
aF-0.1453763246536255
aF0.06358707696199417
aF-0.11168874055147171
aF0.09777498245239258
aF0.0356726236641407
aF0.02828138694167137
aF-0.09589653462171555
aF-0.1134273037314415
aF-0.015539332292973995
aF0.10929418355226517
aF-0.05388106778264046
aF-0.11691269278526306
aF0.07414229214191437
aF-0.11607776582241058
aF0.08619853109121323
aF-0.13831762969493866
aF-0.08742411434650421
aF0.10435057431459427
aF-0.04062642157077789
aF0.05882595106959343
aF0.1487063616514206
aF0.07890362292528152
aF0.012716210447251797
aF0.033466488122940063
aF0.10738793760538101
aF-0.03979389742016792
aF0.054954640567302704
aF-0.042301665991544724
aF-0.1410377472639084
aF-0.051033392548561096
aF-0.16841837763786316
aF0.11882845312356949
aF-0.06180790811777115
aF0.007603522390127182
aF0.017249800264835358
aF0.05737944692373276
aF-0.03730989992618561
aF0.0373140349984169
aF0.004129099193960428
aF0.11140475422143936
aF0.03264337405562401
aF0.004628108814358711
aF0.047669123858213425
aF-0.048215243965387344
aF-0.12834227085113525
aF-0.011979779228568077
aF-0.09922000765800476
aF-0.03461137041449547
aF0.15522310137748718
aF-0.04106944799423218
aF-0.05386841297149658
aF0.15360119938850403
aF0.02151302993297577
aF-0.12113714218139648
aF-0.047897547483444214
aF0.0012325707357376814
aF-0.022909607738256454
aF0.14284725487232208
aF-0.010330949909985065
aF0.14313556253910065
aF0.11743830144405365
aF0.08333795517683029
aF0.22315196692943573
aF0.04077877476811409
aF0.05611314997076988
aF0.07313131541013718
aF0.07925394177436829
aF0.037199605256319046
aF-0.006720715668052435
aF-0.00034697659430094063
aF0.06990515440702438
aF0.05895555391907692
aF0.033906955271959305
aF-0.06368137151002884
aF-0.08425750583410263
aF0.018962997943162918
aF-0.00033517854171805084
aF0.06994692981243134
aF-0.03843798115849495
aF0.10042167454957962
aF-0.10959088057279587
aF-0.021942274644970894
aF0.04292924702167511
aF0.04387795552611351
aF-0.13186371326446533
aF-0.04879971221089363
aF-0.08282504975795746
aF-0.1350158303976059
aF-0.04606923460960388
aF0.10929662734270096
aF-0.11005384474992752
aF0.08408641815185547
aF0.060651350766420364
aF0.025401094928383827
aF0.11764610558748245
aF0.11246943473815918
aF-0.15495572984218597
aF0.0780712440609932
aF0.03293624147772789
aF-0.08789567649364471
aF0.035412684082984924
aF0.05292942374944687
aF-0.07508297264575958
aF-0.03297919034957886
aF0.10276826471090317
aF-0.053978048264980316
aF0.15094633400440216
aF0.1369961053133011
aF-0.08427532017230988
aF-0.04121653735637665
aF-0.07081346958875656
aF-0.08199118822813034
aF0.0723089948296547
aF0.007536661345511675
aa(lp40
F0.12751609086990356
aF-0.05352431908249855
aF-0.10456442087888718
aF-0.062111176550388336
aF-0.026073655113577843
aF0.16045522689819336
aF0.05832595005631447
aF0.09754200279712677
aF-0.0844753235578537
aF0.08995498716831207
aF0.09074467420578003
aF-0.08278553932905197
aF-0.06495840847492218
aF-0.0987800881266594
aF0.03385046496987343
aF-0.0018562856130301952
aF0.07372108101844788
aF-0.13239367306232452
aF-0.02407865971326828
aF0.0374031588435173
aF0.06553199887275696
aF0.04872787371277809
aF-0.09643257409334183
aF-0.00725821265950799
aF0.10427117347717285
aF-0.015185819938778877
aF-0.008576150983572006
aF0.024454711005091667
aF-0.14300981163978577
aF0.02457091398537159
aF0.13893543183803558
aF-0.13179153203964233
aF0.05362430587410927
aF0.05444899946451187
aF0.08185476809740067
aF0.15148037672042847
aF0.1781543642282486
aF0.10837973654270172
aF0.019036035984754562
aF0.0676557868719101
aF-0.06655063480138779
aF-0.08779202401638031
aF-0.11325715482234955
aF0.10015598684549332
aF-0.015195867978036404
aF0.0002518891997169703
aF0.02571747824549675
aF-0.13978376984596252
aF0.012789172120392323
aF-0.06213657930493355
aF0.002760868053883314
aF-0.016844268888235092
aF0.035529255867004395
aF-0.1003667339682579
aF-0.10205212235450745
aF-0.0826895534992218
aF0.024043459445238113
aF0.19479244947433472
aF-0.10617286711931229
aF0.05799270048737526
aF0.104045070707798
aF-0.055770810693502426
aF-0.020426316186785698
aF-0.03618451952934265
aF-0.030816521495580673
aF-0.02048192359507084
aF0.0010909951524809003
aF0.054987408220767975
aF0.026011737063527107
aF-0.11780037730932236
aF-0.07434530556201935
aF0.054471954703330994
aF-0.056375592947006226
aF-0.12523144483566284
aF0.10169754177331924
aF0.08879244327545166
aF0.1393028199672699
aF0.057974908500909805
aF0.0489656887948513
aF-0.031284723430871964
aF0.12744399905204773
aF0.07203084230422974
aF0.04007110744714737
aF-0.021866057068109512
aF0.05031713843345642
aF-0.09321397542953491
aF-0.04978048801422119
aF-0.021316325291991234
aF-0.04794178903102875
aF-0.04327124357223511
aF-0.10799214243888855
aF0.04975607991218567
aF0.12013611942529678
aF-0.11260241270065308
aF-0.11937665194272995
aF-0.02570156939327717
aF-0.13029605150222778
aF-0.11514657735824585
aF-0.06314503401517868
aF0.10357064008712769
aF0.05253962427377701
aF0.0573558434844017
aF-0.1374136507511139
aF0.01755814254283905
aF-0.15476404130458832
aF0.22819864749908447
aF0.08441441506147385
aF0.11011865735054016
aF0.09064685553312302
aF0.008117154240608215
aF0.05589624121785164
aF0.12195377051830292
aF0.1054975762963295
aF0.06466638296842575
aF-0.1625581830739975
aF-0.024663742631673813
aF0.04082747921347618
aF0.09140170365571976
aF0.09155567735433578
aF-0.1149924173951149
aF-0.05518905445933342
aF0.11164839565753937
aF0.10873217135667801
aF-0.20368227362632751
aF0.049776531755924225
aF0.045066509395837784
aF0.03380591794848442
aF0.030120383948087692
aa(lp41
F0.09396050125360489
aF-0.11218671500682831
aF0.04958733171224594
aF-0.10625150054693222
aF-0.05254906788468361
aF0.0885893926024437
aF-0.008768809959292412
aF-0.0027505008038133383
aF-0.07110986858606339
aF-0.13919693231582642
aF-0.027882831171154976
aF0.04056526720523834
aF-0.10962111502885818
aF0.10728655755519867
aF0.14084139466285706
aF-0.06075459346175194
aF-0.07826084643602371
aF-0.18038436770439148
aF0.015095102600753307
aF0.002363285981118679
aF0.1135440468788147
aF0.11254152655601501
aF-0.056903962045907974
aF-0.01653757505118847
aF0.04124376177787781
aF0.022795747965574265
aF-0.07481322437524796
aF0.0027369274757802486
aF-0.004580801818519831
aF-0.09511744230985641
aF0.1438586711883545
aF-0.01694234274327755
aF0.12035541981458664
aF-0.06928762048482895
aF0.006700415629893541
aF0.08070776611566544
aF-0.04933404549956322
aF0.112375408411026
aF-0.0016017371090129018
aF0.12049467116594315
aF-0.08285506069660187
aF-0.012099605984985828
aF0.15407848358154297
aF0.13622553646564484
aF-0.057586535811424255
aF-0.023301977664232254
aF0.025854097679257393
aF-0.0230167955160141
aF0.10612211376428604
aF0.01663472130894661
aF0.08546000719070435
aF-0.09324702620506287
aF-0.08499465137720108
aF-0.09561005979776382
aF-0.05266091972589493
aF-0.1743995100259781
aF-0.061306536197662354
aF0.1740543097257614
aF-0.07651769369840622
aF-0.01961335726082325
aF0.1242847889661789
aF-0.13348425924777985
aF-0.03797338530421257
aF-0.0650315061211586
aF-0.058717526495456696
aF0.03188079595565796
aF0.02891203574836254
aF-0.01637307181954384
aF-0.018120301887392998
aF-0.15627127885818481
aF-0.06898748129606247
aF-0.13459168374538422
aF-0.14601118862628937
aF0.08132870495319366
aF-0.12191285192966461
aF-0.15600115060806274
aF0.0972466841340065
aF-0.03567410260438919
aF-0.17554707825183868
aF0.04676332697272301
aF-0.032719261944293976
aF-0.03142588958144188
aF-0.071821428835392
aF0.061278052628040314
aF-0.10831248015165329
aF0.0026700973976403475
aF0.07885390520095825
aF0.004081275779753923
aF0.023518141359090805
aF-0.04568035155534744
aF0.04806113243103027
aF-0.09988553076982498
aF-0.0035065405536442995
aF0.11480733007192612
aF0.08405164629220963
aF0.12013355642557144
aF-0.07578754425048828
aF-0.09964083880186081
aF-0.02428530342876911
aF0.051168520003557205
aF-0.0511259101331234
aF0.17800544202327728
aF0.08527307957410812
aF0.17034678161144257
aF-0.053784750401973724
aF-0.02829250693321228
aF-0.0390213318169117
aF0.043078456073999405
aF0.07848430424928665
aF-0.18193262815475464
aF0.15820281207561493
aF0.009375765919685364
aF-0.031447358429431915
aF0.03502821549773216
aF-0.06910260021686554
aF0.03833480924367905
aF-0.09876028448343277
aF-0.027132490649819374
aF-0.10555471479892731
aF-0.037392180413007736
aF-0.14212405681610107
aF-0.15446865558624268
aF0.08630375564098358
aF0.014829806983470917
aF0.09172732383012772
aF0.07589687407016754
aF0.08505204319953918
aF-0.010749359615147114
aa(lp42
F0.04549477621912956
aF-0.10620412975549698
aF-0.08906655013561249
aF0.12952269613742828
aF-0.1022801622748375
aF0.07651425153017044
aF0.09398960322141647
aF-0.019797641783952713
aF-0.06041828170418739
aF-0.05450952425599098
aF-0.06417568027973175
aF0.058444809168577194
aF0.039039939641952515
aF-0.07708155363798141
aF0.026050537824630737
aF0.1073751300573349
aF0.1182449460029602
aF-0.07082566618919373
aF-0.10375092178583145
aF-0.02750123292207718
aF-0.17212693393230438
aF0.14955785870552063
aF-0.14595668017864227
aF0.0038818796165287495
aF0.16905434429645538
aF-0.03694789856672287
aF0.07819472998380661
aF-0.03965286910533905
aF0.06944267451763153
aF0.0832129567861557
aF-0.010673764161765575
aF-0.06858812272548676
aF0.06321411579847336
aF0.11124829202890396
aF0.0009233950404450297
aF0.0033767754212021828
aF0.1403009295463562
aF0.13240596652030945
aF-0.09491432458162308
aF-0.15126582980155945
aF0.058580636978149414
aF0.10988438874483109
aF0.09540987759828568
aF0.02560899779200554
aF-0.005173093639314175
aF0.050264500081539154
aF0.10916949808597565
aF0.08569726347923279
aF-0.018954956904053688
aF-0.06322118639945984
aF-0.077663853764534
aF0.04771962761878967
aF0.008770845830440521
aF-0.15930907428264618
aF0.0922393724322319
aF0.05672020837664604
aF-0.12197505682706833
aF0.1350976824760437
aF-0.06041470915079117
aF0.0008731959969736636
aF-0.034397825598716736
aF-0.05096335709095001
aF-0.03998479247093201
aF0.2210194170475006
aF-0.22141705453395844
aF-0.020535364747047424
aF-0.023512480780482292
aF-0.12803924083709717
aF0.12379831820726395
aF0.08388850837945938
aF0.04802583530545235
aF0.10753434896469116
aF-0.03011428192257881
aF-0.044985540211200714
aF-0.011514754965901375
aF-0.0817742869257927
aF0.14611658453941345
aF-0.07891283929347992
aF0.029610982164740562
aF-0.06300482153892517
aF0.041875917464494705
aF-0.05567130446434021
aF-0.14444895088672638
aF-0.07342471927404404
aF0.1325480341911316
aF-0.12423454970121384
aF0.12573304772377014
aF-0.031472958624362946
aF-0.02808512933552265
aF-0.0683886930346489
aF0.11062312126159668
aF0.08079105615615845
aF0.01786116510629654
aF-0.06181161850690842
aF0.11725283414125443
aF-0.053266625851392746
aF0.1505093276500702
aF-0.018423577770590782
aF0.06508449465036392
aF0.11735259741544724
aF-0.03963300585746765
aF-0.03213224932551384
aF-0.012978823855519295
aF-0.040446314960718155
aF0.06633962690830231
aF-0.004616859368979931
aF-0.06822595745325089
aF0.06730125844478607
aF0.007461336441338062
aF0.038359567523002625
aF-0.0035183143336325884
aF0.17884249985218048
aF0.05659583583474159
aF0.08232047408819199
aF-0.08936984091997147
aF-0.010603739880025387
aF-0.09460155665874481
aF0.0449446476995945
aF0.022000212222337723
aF-0.1157774031162262
aF-0.01601860299706459
aF0.08851516246795654
aF0.16714000701904297
aF-0.08471192419528961
aF0.13579164445400238
aF-0.008842598646879196
aF0.04813582822680473
aF-0.030546916648745537
aa(lp43
F0.12508215010166168
aF-0.021719306707382202
aF-0.049276791512966156
aF-0.09738431125879288
aF-0.044046469032764435
aF-0.19973412156105042
aF0.009004702791571617
aF0.005513611249625683
aF-0.0687362551689148
aF-0.023697100579738617
aF0.1028275415301323
aF0.07048168778419495
aF-0.09372854232788086
aF-0.09243977814912796
aF0.06410127133131027
aF0.018680807203054428
aF0.03366593271493912
aF0.02356460504233837
aF-0.10089249908924103
aF-0.047988347709178925
aF-0.13188928365707397
aF0.2351331263780594
aF0.053132563829422
aF0.06507568061351776
aF0.013678370974957943
aF-0.07161445915699005
aF0.027544865384697914
aF0.09064449369907379
aF0.10507369786500931
aF0.06667742133140564
aF-0.008396035060286522
aF-0.011450499296188354
aF0.053369514644145966
aF-0.011435512453317642
aF-0.0708223357796669
aF0.08046059310436249
aF0.047761816531419754
aF-0.026470709592103958
aF0.19330286979675293
aF-0.025173518806695938
aF0.05786391347646713
aF0.008413120172917843
aF-0.27994826436042786
aF-0.04290900379419327
aF0.10709772258996964
aF0.2030431628227234
aF0.11319883912801743
aF-0.03551584482192993
aF0.06300000101327896
aF0.037090953439474106
aF0.014492630027234554
aF-0.02150057628750801
aF0.01629067398607731
aF0.06085381656885147
aF-0.038355350494384766
aF0.08965174853801727
aF0.04231835529208183
aF-0.008868231438100338
aF0.008041624911129475
aF0.05312788486480713
aF-0.13446258008480072
aF-0.0838022381067276
aF0.18235409259796143
aF-0.14653155207633972
aF0.03985077515244484
aF0.05975161865353584
aF0.008158537559211254
aF-0.016962433233857155
aF0.053756147623062134
aF-0.10354827344417572
aF-0.06332261115312576
aF0.07110315561294556
aF0.2812422215938568
aF0.024436650797724724
aF-0.014511464163661003
aF-0.02552245929837227
aF0.3004075884819031
aF-0.013408887200057507
aF0.17088131606578827
aF-0.08902949094772339
aF-0.03307674452662468
aF0.017709888517856598
aF0.06957720965147018
aF-0.00501414155587554
aF-0.017618926241993904
aF0.009254134260118008
aF-0.011087018996477127
aF0.03823008015751839
aF-0.05541174113750458
aF-0.04625324159860611
aF0.07053814083337784
aF-0.014334816485643387
aF0.025561165064573288
aF0.0742964968085289
aF-0.08761820942163467
aF-0.05802518129348755
aF0.06856448948383331
aF-0.03352995589375496
aF0.027421191334724426
aF-0.06294577568769455
aF0.12374867498874664
aF0.07080285996198654
aF-0.014117509126663208
aF0.03651618957519531
aF-0.020889928564429283
aF-0.15049028396606445
aF-0.08869335800409317
aF0.019331851974129677
aF-0.04037110507488251
aF-0.009102525189518929
aF-0.011970221064984798
aF0.06552430987358093
aF-0.05874011293053627
aF-0.10506422817707062
aF-0.000533564540091902
aF0.022051215171813965
aF-0.047222577035427094
aF0.062026020139455795
aF-0.11252172291278839
aF-0.06821314990520477
aF0.032702915370464325
aF-0.0687853991985321
aF-0.03751346468925476
aF0.21962857246398926
aF-0.06550116091966629
aF0.024395816028118134
aF0.11319958418607712
aF0.006675847340375185
aa(lp44
F-0.17024807631969452
aF-0.07427230477333069
aF0.02783513255417347
aF-0.16838869452476501
aF0.11715643107891083
aF-0.05800965428352356
aF0.13658371567726135
aF-0.05305744335055351
aF0.12175943702459335
aF0.04318300262093544
aF0.05609428137540817
aF-0.03482881188392639
aF-0.021613353863358498
aF0.14176146686077118
aF0.08037658035755157
aF-0.09107477217912674
aF-0.03290090337395668
aF-0.022697534412145615
aF0.05585111677646637
aF0.017782680690288544
aF0.1324397772550583
aF0.007538330741226673
aF-0.06562867760658264
aF0.11932526528835297
aF-0.0953034982085228
aF0.027035053819417953
aF-0.006909708492457867
aF0.036608826369047165
aF0.1754404604434967
aF0.047472454607486725
aF0.07301165908575058
aF0.10662949085235596
aF-0.043116990476846695
aF0.026303516700863838
aF0.14025981724262238
aF0.1531493365764618
aF-0.18395735323429108
aF0.09727967530488968
aF0.13064849376678467
aF-0.041282009333372116
aF0.13362357020378113
aF-0.025480730459094048
aF0.1227203756570816
aF-0.0715777575969696
aF0.015502276830375195
aF0.039781611412763596
aF0.0861658975481987
aF0.05015142634510994
aF-0.14443521201610565
aF-0.07959751784801483
aF-0.05490820109844208
aF-0.004570068791508675
aF0.05435672029852867
aF0.08210676908493042
aF-0.05568689852952957
aF0.008521833457052708
aF0.13054771721363068
aF-0.1244455948472023
aF-0.08572545647621155
aF-0.04791749641299248
aF-0.04327201098203659
aF-0.057728808373212814
aF-0.035960521548986435
aF-0.05467875301837921
aF0.11905431002378464
aF0.1820918172597885
aF-0.008052809163928032
aF-0.10772358626127243
aF-0.09338239580392838
aF-0.0863998681306839
aF0.13731040060520172
aF0.03583991155028343
aF0.029889818280935287
aF-0.010154995135962963
aF0.09761808067560196
aF-0.07105538994073868
aF-0.09126564115285873
aF-0.15037354826927185
aF0.022902507334947586
aF0.11389970034360886
aF0.0872897356748581
aF0.06402081251144409
aF0.00016721198335289955
aF-0.01005966030061245
aF0.0010246741585433483
aF0.04694771394133568
aF0.05664432793855667
aF0.050358887761831284
aF0.10723818838596344
aF-0.009235936217010021
aF0.06798126548528671
aF-0.1685422956943512
aF-0.1052345335483551
aF-0.014085538685321808
aF0.10774312168359756
aF0.02536075934767723
aF-0.12600712478160858
aF-0.00030056125251576304
aF-0.0760539174079895
aF0.04476768895983696
aF-0.15346497297286987
aF-0.01809093728661537
aF0.045284051448106766
aF-0.032486289739608765
aF-0.06963139772415161
aF0.06466472893953323
aF0.07850993424654007
aF0.13577085733413696
aF-0.16164672374725342
aF0.07687634974718094
aF0.08963046222925186
aF0.004545493982732296
aF-0.14206130802631378
aF0.05633647367358208
aF-0.1347384750843048
aF0.05831097811460495
aF-0.07573401927947998
aF0.11849392205476761
aF0.033362939953804016
aF0.038125164806842804
aF0.08015462756156921
aF0.019867777824401855
aF-0.04317089915275574
aF0.12209239602088928
aF0.06343726813793182
aF-0.11204914003610611
aF0.06389512121677399
aF0.08506206423044205
aa(lp45
F-0.03357350826263428
aF-0.058474455028772354
aF-0.03359716385602951
aF0.0019078300101682544
aF0.08792829513549805
aF-0.03339657559990883
aF-0.035644933581352234
aF0.08761420845985413
aF0.029845666140317917
aF0.024040311574935913
aF0.10255707800388336
aF0.10406377166509628
aF-0.09723320603370667
aF-0.15332777798175812
aF0.12915821373462677
aF0.053474582731723785
aF0.1545417308807373
aF0.022592589259147644
aF-0.08929037302732468
aF-0.17444191873073578
aF-0.09604399651288986
aF0.030558552592992783
aF-0.030965719372034073
aF-0.040445759892463684
aF0.13915523886680603
aF-0.08256777375936508
aF-0.018216995522379875
aF-0.00480436347424984
aF-0.02967178449034691
aF-0.09278599917888641
aF0.0686463713645935
aF-0.02852986939251423
aF0.07045575976371765
aF0.18745766580104828
aF-0.023359788581728935
aF-0.03808571770787239
aF0.14809301495552063
aF0.0851982980966568
aF-0.008358923718333244
aF-0.11423023045063019
aF0.12914229929447174
aF0.03414899855852127
aF0.06442683190107346
aF-0.070988230407238
aF0.11835962533950806
aF0.09537266939878464
aF0.17237061262130737
aF0.044874630868434906
aF0.03786718472838402
aF0.07469027489423752
aF-0.07134225219488144
aF-0.12252236157655716
aF0.12687495350837708
aF-0.15943491458892822
aF0.07870524376630783
aF-0.07390146702528
aF-0.021589113399386406
aF0.0630773976445198
aF0.10094483196735382
aF0.0346275195479393
aF-0.127268448472023
aF-0.009777899831533432
aF0.04250794276595116
aF0.16769900918006897
aF-0.13468629121780396
aF-0.13279522955417633
aF-0.06873206794261932
aF-0.078529953956604
aF0.11904642730951309
aF0.07287544012069702
aF-0.04447241872549057
aF-0.0350852869451046
aF-0.01290789432823658
aF-0.1761138141155243
aF-0.06658153980970383
aF-0.0274521391838789
aF-0.06954190135002136
aF0.040804505348205566
aF0.12018201500177383
aF0.016873087733983994
aF-0.0707898885011673
aF0.03392953425645828
aF-0.04125046730041504
aF0.030261313542723656
aF-0.04080050438642502
aF0.055917076766490936
aF-0.0527275986969471
aF0.015827158465981483
aF-0.12487568706274033
aF0.057866502553224564
aF0.042562711983919144
aF0.04686950147151947
aF0.07474232465028763
aF-0.03253171965479851
aF0.006837150547653437
aF0.05066382884979248
aF0.10412975400686264
aF0.03470544517040253
aF0.11893274635076523
aF0.018254101276397705
aF0.1832846850156784
aF0.005319261457771063
aF-0.0910964235663414
aF0.10937295854091644
aF0.08262744545936584
aF0.11326771974563599
aF-0.014607023447751999
aF-0.04672308638691902
aF0.05702616274356842
aF-0.059990294277668
aF-0.18052607774734497
aF0.17604376375675201
aF0.14894959330558777
aF0.0487581305205822
aF-0.0302057433873415
aF-0.10444080084562302
aF-0.1032990962266922
aF0.1260625123977661
aF0.08881952613592148
aF-0.09452813118696213
aF-0.09697536379098892
aF0.08732327818870544
aF0.044718965888023376
aF-0.0037769433110952377
aF0.158091202378273
aF-0.015436194837093353
aF-0.040724970400333405
aF-0.03351384028792381
aa(lp46
F-0.09503955394029617
aF0.06493121385574341
aF-0.016408687457442284
aF-0.09944723546504974
aF-0.08295881003141403
aF-0.01589353196322918
aF0.2055865228176117
aF0.1886138617992401
aF0.012197190895676613
aF0.03326365351676941
aF0.16751492023468018
aF-0.12278692424297333
aF-0.08144129067659378
aF0.2111946940422058
aF-0.09802576899528503
aF-0.021577639505267143
aF-0.07463856786489487
aF-0.10880804061889648
aF0.07387427240610123
aF0.10275676846504211
aF0.1737935096025467
aF0.08499636501073837
aF-0.19958096742630005
aF0.08026102185249329
aF-0.012810771353542805
aF-0.031481944024562836
aF0.018736645579338074
aF-0.05306350812315941
aF0.051995281130075455
aF0.03582657128572464
aF0.06427522003650665
aF0.05625135824084282
aF-0.08908897638320923
aF-0.06482086330652237
aF-0.05703818053007126
aF0.04134618118405342
aF-0.049196965992450714
aF0.05031830072402954
aF0.04419245570898056
aF-0.057757385075092316
aF-0.02807796560227871
aF0.0616547092795372
aF-0.043516725301742554
aF0.08427900820970535
aF0.08684484660625458
aF0.08463176339864731
aF0.031199181452393532
aF-0.06223123520612717
aF-0.10634127259254456
aF-0.13671115040779114
aF0.05015629157423973
aF-0.05446843057870865
aF-0.053810521960258484
aF-0.01146030705422163
aF-0.03647230565547943
aF0.041582141071558
aF0.03601754084229469
aF0.06730915606021881
aF0.0032973941415548325
aF-0.13303649425506592
aF-0.20111264288425446
aF0.044134076684713364
aF0.09693057835102081
aF-0.06630099564790726
aF0.14748860895633698
aF0.054142605513334274
aF0.12567749619483948
aF0.02971564792096615
aF0.13411077857017517
aF-0.05846034735441208
aF0.1794433891773224
aF-0.04887792095541954
aF0.04364686831831932
aF0.015839871019124985
aF0.06392447650432587
aF-0.006127604749053717
aF-0.10719534754753113
aF-0.05456242710351944
aF-0.09760203957557678
aF-0.09562698006629944
aF-0.08395247161388397
aF0.05590690299868584
aF-0.004156435374170542
aF0.03526673838496208
aF0.024583743885159492
aF0.02070331946015358
aF-0.041927073150873184
aF0.02747677080333233
aF0.05732698738574982
aF0.07607728987932205
aF0.13433754444122314
aF-0.18277880549430847
aF0.07032995671033859
aF-0.08902847021818161
aF0.025322554633021355
aF0.01680934801697731
aF-0.11364691704511642
aF0.10141926258802414
aF0.04637611284852028
aF0.09963216632604599
aF-0.017682598903775215
aF0.0738716870546341
aF-0.09113749861717224
aF0.08617865294218063
aF0.046669021248817444
aF0.1327097862958908
aF0.062366317957639694
aF-0.04764457419514656
aF-0.07652026414871216
aF-0.08607961237430573
aF0.02004503458738327
aF0.06728051602840424
aF0.14795193076133728
aF0.09282878786325455
aF-0.07581648975610733
aF-0.03295784816145897
aF0.1029592752456665
aF0.08385936170816422
aF-0.05461335554718971
aF-0.06724371761083603
aF0.011452669277787209
aF0.08190780878067017
aF0.15312595665454865
aF0.009224495850503445
aF-0.11256355792284012
aF0.06585011631250381
aF-0.1789739429950714
aF0.05017140880227089
aa(lp47
F-0.042192358523607254
aF-0.08067718893289566
aF-0.05277169868350029
aF0.1920483112335205
aF0.11267165094614029
aF-0.028348110616207123
aF0.11909276992082596
aF-0.06176631152629852
aF0.008137344382703304
aF-0.0008199195726774633
aF-0.024402108043432236
aF0.03194500878453255
aF0.10724528133869171
aF0.09978947788476944
aF-0.04203624278306961
aF-0.10975185036659241
aF-0.05533967912197113
aF-0.06910751014947891
aF0.045056745409965515
aF0.1470188945531845
aF0.12287364155054092
aF0.2272542268037796
aF-0.06172705814242363
aF0.03995424136519432
aF-0.053965240716934204
aF0.03541367128491402
aF0.018829630687832832
aF-0.012019235640764236
aF-0.023655181750655174
aF-0.05262187495827675
aF0.00940549373626709
aF0.10447025299072266
aF0.07332977652549744
aF0.08269654214382172
aF0.03870225325226784
aF-0.016050556674599648
aF0.10146097093820572
aF0.019379764795303345
aF-0.014080164022743702
aF0.11196741461753845
aF0.05540655180811882
aF0.13958273828029633
aF-0.07107467204332352
aF-3.4615422919159755e-05
aF-0.015829624608159065
aF-0.017288383096456528
aF0.10803944617509842
aF-0.03554626554250717
aF0.030124934390187263
aF0.011799429543316364
aF-0.07729123532772064
aF-0.008747609332203865
aF0.05285127833485603
aF-0.10201714187860489
aF-0.08248625695705414
aF-0.12495756894350052
aF0.0599081926047802
aF0.20946116745471954
aF0.08161350339651108
aF-0.006412947084754705
aF-0.07026596367359161
aF-0.063401959836483
aF-0.06777138262987137
aF0.025914445519447327
aF0.05061575770378113
aF-0.23086751997470856
aF-0.019527342170476913
aF0.01872400753200054
aF-0.08624358475208282
aF-0.11452079564332962
aF-0.07762615382671356
aF-0.011655326001346111
aF-0.19883190095424652
aF-0.054498929530382156
aF-0.18318037688732147
aF-0.0008657366852276027
aF-0.07101809233427048
aF-0.025719553232192993
aF0.05896734073758125
aF-0.12159723788499832
aF-0.2887522280216217
aF-0.06717081367969513
aF-0.01693110540509224
aF-0.08657625317573547
aF0.060701385140419006
aF0.06148022413253784
aF-0.012826872989535332
aF0.0840182974934578
aF0.033785365521907806
aF-0.03709172084927559
aF0.07328557968139648
aF-0.011847254820168018
aF0.07364238053560257
aF-0.15593962371349335
aF-0.017333248630166054
aF0.06024119630455971
aF0.11000479012727737
aF0.03959858790040016
aF-0.0742526724934578
aF-0.10160679370164871
aF0.03227817267179489
aF0.15632684528827667
aF0.010845392011106014
aF0.0501038022339344
aF0.028167888522148132
aF-0.03326130658388138
aF-0.09779952466487885
aF-0.07665608823299408
aF-0.12410680949687958
aF-0.24937672913074493
aF0.04373110085725784
aF-0.02022487483918667
aF0.024780452251434326
aF0.09822055697441101
aF-0.0022086792159825563
aF0.04913041368126869
aF-0.013175202533602715
aF-0.08256623148918152
aF0.06260356307029724
aF0.14098897576332092
aF-0.05656544491648674
aF-0.0624627023935318
aF0.03403845056891441
aF-0.11456827819347382
aF-0.007348403334617615
aF-0.06416843831539154
aF-0.027385219931602478
aF0.10656668245792389
aa(lp48
F0.1235433965921402
aF-0.13304996490478516
aF0.10979577898979187
aF-0.149203822016716
aF-0.05780091881752014
aF-0.06630580872297287
aF-0.08903463184833527
aF0.06245066225528717
aF0.02022067829966545
aF-0.08437810838222504
aF-0.04952386021614075
aF-0.05402844399213791
aF-0.07672731578350067
aF-0.09565573185682297
aF0.0743628516793251
aF0.0877118781208992
aF-0.10714276880025864
aF0.06323053687810898
aF-0.04978427290916443
aF0.04406820982694626
aF0.03711201623082161
aF-0.03204655274748802
aF-0.13953188061714172
aF-0.02651359513401985
aF0.019103966653347015
aF0.08216709643602371
aF0.022464323788881302
aF-0.16860686242580414
aF0.029108716174960136
aF-0.16423560678958893
aF-0.08332012593746185
aF0.02168925106525421
aF0.0027989728841930628
aF-0.21549250185489655
aF-0.02334713749587536
aF0.09688664972782135
aF-0.00997997634112835
aF0.043867338448762894
aF0.05597412958741188
aF-0.011323519051074982
aF0.11449100077152252
aF-0.08262349665164948
aF-0.06652409583330154
aF-0.08282626420259476
aF-0.14008542895317078
aF-0.0045397281646728516
aF-0.051443684846162796
aF0.06325339525938034
aF-0.07509720325469971
aF-0.06943514198064804
aF-0.04564420133829117
aF0.10794225335121155
aF-0.060459062457084656
aF0.03779788315296173
aF-0.09401708841323853
aF0.056678686290979385
aF-0.016594229266047478
aF0.13647712767124176
aF0.047036781907081604
aF0.08516111969947815
aF0.11265507340431213
aF0.044174615293741226
aF0.034533508121967316
aF0.02891729213297367
aF0.10557223856449127
aF0.09438560903072357
aF0.16438943147659302
aF-0.0009561648475937545
aF0.09135603159666061
aF-0.09075881540775299
aF-0.14066287875175476
aF-0.15165898203849792
aF-0.16957171261310577
aF0.07371954619884491
aF0.09078654646873474
aF-0.03528576344251633
aF0.07314828038215637
aF-0.0861782357096672
aF-0.03618462011218071
aF0.10083793103694916
aF-0.12907864153385162
aF0.031065894290804863
aF-0.0013757575070485473
aF-0.0012640764471143484
aF0.04149817302823067
aF0.09537331014871597
aF-0.03535263240337372
aF-0.0005293749854899943
aF0.13754074275493622
aF-0.060880616307258606
aF-0.09604841470718384
aF0.08784199506044388
aF-0.07918918132781982
aF0.03268509730696678
aF0.14735019207000732
aF0.028283946216106415
aF0.10546787083148956
aF-0.10374348610639572
aF-0.013471562415361404
aF-0.04236985370516777
aF-0.1041165366768837
aF0.04253504052758217
aF0.16846197843551636
aF-0.032907772809267044
aF0.0943649634718895
aF0.04724590480327606
aF-0.014603864401578903
aF0.09506187587976456
aF0.00739138200879097
aF-0.07135378569364548
aF0.17698970437049866
aF-0.047873858362436295
aF-0.1217941865324974
aF0.06717098504304886
aF-0.001235848874785006
aF0.08558640629053116
aF0.14760510623455048
aF-0.022975459694862366
aF0.0596906840801239
aF-0.03242815285921097
aF-0.08723676949739456
aF-0.13818955421447754
aF0.05126577988266945
aF0.22028975188732147
aF0.14667536318302155
aF0.0010910932905972004
aF-0.019093554466962814
aF-0.026986364275217056
aa(lp49
F0.10582572966814041
aF-0.10002671927213669
aF0.07128413021564484
aF-0.12587812542915344
aF0.15246088802814484
aF-0.054739367216825485
aF-0.02413727156817913
aF-0.014942225068807602
aF0.05263461545109749
aF-0.013224484398961067
aF-0.002623072126880288
aF0.10091640055179596
aF-0.16308800876140594
aF-0.04319334030151367
aF0.15942075848579407
aF0.017491426318883896
aF-0.09460779279470444
aF0.02836347557604313
aF-0.038706500083208084
aF0.06938159465789795
aF-0.09457744657993317
aF-0.09765878319740295
aF0.02066812850534916
aF-0.05939752981066704
aF0.14416639506816864
aF-0.022008031606674194
aF0.048563554883003235
aF-0.08481082320213318
aF-0.0727706030011177
aF-0.11674454808235168
aF0.1326710432767868
aF-0.0398997999727726
aF0.07176857441663742
aF-0.19370298087596893
aF-0.043291427195072174
aF0.17706361413002014
aF-0.10711253434419632
aF-0.008566548116505146
aF0.017170235514640808
aF0.06485983729362488
aF0.04575687646865845
aF-0.10350777953863144
aF0.153227299451828
aF0.05493854358792305
aF-0.19328634440898895
aF0.014572336338460445
aF-0.06365995109081268
aF-0.09761841595172882
aF0.06921225041151047
aF-0.08284159749746323
aF0.013803722336888313
aF0.00016208361194003373
aF-0.001166566158644855
aF-0.05085238814353943
aF0.015119289048016071
aF-0.03729572147130966
aF-0.14671218395233154
aF0.0191657692193985
aF-0.08682618290185928
aF0.015753956511616707
aF-0.03580633923411369
aF-0.09248237311840057
aF0.06514494121074677
aF-0.1623045653104782
aF0.07856530696153641
aF0.12650451064109802
aF0.12696264684200287
aF-0.011176926083862782
aF-0.11579044163227081
aF-0.043073978275060654
aF-0.10362555086612701
aF0.004545602016150951
aF-0.09703536331653595
aF-0.07746390998363495
aF0.06956227868795395
aF-0.06125492602586746
aF-0.07319842278957367
aF0.05474535748362541
aF0.011578686535358429
aF0.08237320929765701
aF-0.004429209046065807
aF0.03392248600721359
aF-0.07745938748121262
aF-0.037648171186447144
aF0.04623853787779808
aF0.04548534378409386
aF0.034550171345472336
aF0.12458571046590805
aF0.1007525771856308
aF-0.047132909297943115
aF0.03404057025909424
aF0.005355753004550934
aF0.024540062993764877
aF0.05060144141316414
aF-0.018945571035146713
aF0.1561664640903473
aF0.09384807199239731
aF0.03501702845096588
aF0.037578992545604706
aF-0.07893460243940353
aF-0.0350520946085453
aF-0.19021812081336975
aF0.14600585401058197
aF0.10906917601823807
aF0.06402260810136795
aF0.09026515483856201
aF-0.04179859533905983
aF0.08913968503475189
aF-0.08800000697374344
aF-0.06689832359552383
aF0.09353099018335342
aF0.0613534152507782
aF-0.06723283976316452
aF-0.0741167962551117
aF-0.12937715649604797
aF0.07330995053052902
aF0.14043162763118744
aF-0.03531648591160774
aF-0.11483166366815567
aF-0.12949810922145844
aF-0.09206513315439224
aF-0.10546461492776871
aF0.044665396213531494
aF0.12196721136569977
aF0.16151225566864014
aF-0.05353641137480736
aF0.1322801113128662
aF-0.10888814181089401
aa(lp50
F-0.18467842042446136
aF0.06941547989845276
aF-0.0705539807677269
aF-0.08160801231861115
aF-0.04222436994314194
aF0.22882764041423798
aF0.09176546335220337
aF0.18362677097320557
aF-0.024296117946505547
aF0.003783779451623559
aF-0.09708153456449509
aF0.05545173957943916
aF0.10032717883586884
aF-0.01014795619994402
aF0.06874027848243713
aF0.08797890692949295
aF0.07194017618894577
aF-0.0061890799552202225
aF0.06488624960184097
aF-0.039473023265600204
aF0.002069097477942705
aF0.031711988151073456
aF0.09911880642175674
aF-0.18267180025577545
aF-0.1381358504295349
aF0.0062631890177726746
aF-0.002321012783795595
aF-0.07575741410255432
aF0.008568656630814075
aF0.17534330487251282
aF-0.0872412770986557
aF0.06631217151880264
aF0.14692921936511993
aF0.06985702365636826
aF-0.09631554037332535
aF-0.15622873604297638
aF0.08916938304901123
aF-0.1039089784026146
aF-0.08126483857631683
aF0.18866001069545746
aF-0.01384736318141222
aF0.1298253983259201
aF0.10119572281837463
aF-0.04214319959282875
aF0.1610538810491562
aF0.11699573695659637
aF-0.06087809056043625
aF-0.04549176245927811
aF0.012434037402272224
aF-0.006694415118545294
aF0.04375982657074928
aF0.08893946558237076
aF0.08355186134576797
aF-0.06867732107639313
aF0.08607859909534454
aF-0.058431509882211685
aF0.04201493412256241
aF0.11580733209848404
aF0.025718843564391136
aF0.0009051784290932119
aF0.14059661328792572
aF-0.039258960634469986
aF-0.019169818609952927
aF-0.049365948885679245
aF-0.06381219625473022
aF0.0161447636783123
aF0.05785072222352028
aF0.1030551865696907
aF-0.046185802668333054
aF0.04906676337122917
aF0.011542374268174171
aF-0.009502125903964043
aF-0.057973966002464294
aF-0.16421683132648468
aF0.05747652053833008
aF0.025132330134510994
aF0.02834572084248066
aF-0.05471471697092056
aF-0.06270256638526917
aF-0.13108719885349274
aF-0.08171521127223969
aF0.06146978586912155
aF-0.006459987256675959
aF-0.031375594437122345
aF-0.10486762970685959
aF-0.05269656702876091
aF-0.11029869318008423
aF0.00415286747738719
aF-0.015958884730935097
aF0.014802507124841213
aF-0.13120931386947632
aF-0.06862270087003708
aF0.11131245642900467
aF0.11398661881685257
aF0.0593135766685009
aF0.05246415361762047
aF0.03948512300848961
aF-0.07059108465909958
aF-0.10434731096029282
aF0.09272190183401108
aF-0.1333967000246048
aF0.1970483511686325
aF0.06743870675563812
aF-0.07158209383487701
aF0.002972529735416174
aF0.039994947612285614
aF-0.0665237084031105
aF0.020928053185343742
aF-0.031212160363793373
aF-0.0874091312289238
aF0.10950147360563278
aF-0.01857745461165905
aF0.1947418451309204
aF-0.10434277355670929
aF-0.11398560553789139
aF0.06315804272890091
aF-0.1477908492088318
aF0.055686600506305695
aF0.1326303631067276
aF0.010701111517846584
aF0.07398524135351181
aF-0.0992407351732254
aF-0.0048664226196706295
aF-0.025275617837905884
aF-0.08559823781251907
aF-0.023879442363977432
aF-0.009449562057852745
aF-0.02421899512410164
aa(lp51
F-0.06705985218286514
aF-0.06872152537107468
aF-0.020595747977495193
aF-0.08328687399625778
aF-0.09895125776529312
aF0.0038172444328665733
aF-0.129684180021286
aF0.023860136047005653
aF0.05578208342194557
aF0.17897562682628632
aF0.10524784028530121
aF0.013829577714204788
aF0.040345583111047745
aF0.014934873208403587
aF0.014558827504515648
aF0.02081548422574997
aF-0.04128251224756241
aF0.0637795701622963
aF-0.05029699206352234
aF-0.08801870048046112
aF-0.15298601984977722
aF-0.060182973742485046
aF0.012078620493412018
aF0.1093045100569725
aF-0.018139343708753586
aF-0.1397472321987152
aF-0.07760965824127197
aF0.1571393758058548
aF0.026066696271300316
aF0.08811227232217789
aF0.08007063716650009
aF0.02958652377128601
aF-0.0682888850569725
aF-0.12301962077617645
aF0.12228284776210785
aF-0.08844070136547089
aF0.06131824105978012
aF-0.0599963404238224
aF0.014915603213012218
aF0.001715217949822545
aF0.08858466893434525
aF0.09651023894548416
aF-0.14790919423103333
aF-0.0833510011434555
aF0.08617482334375381
aF0.06964808702468872
aF-0.05568539723753929
aF-0.14257968962192535
aF0.10408829897642136
aF-0.016062993556261063
aF0.02667659893631935
aF-0.027561387047171593
aF0.043658554553985596
aF0.006425117142498493
aF0.05302094668149948
aF0.03679116815328598
aF0.021717580035328865
aF0.03526237979531288
aF0.09805820882320404
aF-0.03477228060364723
aF0.01312441285699606
aF-0.07465800642967224
aF0.17440620064735413
aF0.003644909942522645
aF0.1268233209848404
aF0.10227438807487488
aF0.06359513103961945
aF0.004934261552989483
aF-0.16791237890720367
aF0.09472694993019104
aF-0.11418671905994415
aF0.14322353899478912
aF0.14924177527427673
aF-0.07997223734855652
aF0.00381552055478096
aF0.09862547367811203
aF0.2654615044593811
aF0.03912365064024925
aF0.021180221810936928
aF-0.10710008442401886
aF0.04449377581477165
aF0.11340421438217163
aF-0.011033217422664165
aF-0.016597984358668327
aF-0.06172454357147217
aF0.2406577169895172
aF0.005832208786159754
aF-0.07056840509176254
aF-0.14578567445278168
aF-0.004526184406131506
aF-0.1023985743522644
aF0.05545109137892723
aF-0.008389524184167385
aF-0.09413380920886993
aF-0.030615799129009247
aF-0.07853733748197556
aF0.1556594967842102
aF0.05901915580034256
aF-0.056273091584444046
aF0.0031879188027232885
aF0.014117236249148846
aF0.01809648610651493
aF-0.06917739659547806
aF0.13243354856967926
aF-0.08849760890007019
aF0.09685393422842026
aF0.08193898946046829
aF0.10228442400693893
aF-0.044754158705472946
aF0.006169130560010672
aF-0.07078652083873749
aF-0.057631347328424454
aF-0.11697971820831299
aF-0.03774642199277878
aF0.02814452163875103
aF-0.10651890188455582
aF-0.09626597166061401
aF0.12482340633869171
aF-0.019232681021094322
aF-0.016182973980903625
aF0.11888042837381363
aF0.08864178508520126
aF0.02849433571100235
aF-0.22041858732700348
aF-0.0439038947224617
aF0.06212906166911125
aF0.04047321900725365
aF-0.007068507373332977
aa(lp52
F0.060624223202466965
aF0.004808889236301184
aF0.16164034605026245
aF-0.0892176479101181
aF-0.0876864641904831
aF0.057325005531311035
aF-0.07112297415733337
aF0.11989624798297882
aF0.06306489557027817
aF-0.0009284313418902457
aF0.1677822321653366
aF-0.03537900745868683
aF0.1090627983212471
aF-0.02608109638094902
aF0.024427393451333046
aF-0.10008258372545242
aF-0.10255949199199677
aF-0.016697367653250694
aF0.16612212359905243
aF0.1649581640958786
aF-0.11493358761072159
aF-0.07116518914699554
aF0.011518728919327259
aF-0.12939104437828064
aF0.06774891912937164
aF-0.13868530094623566
aF-0.09935503453016281
aF0.04939725250005722
aF0.016583018004894257
aF0.10413217544555664
aF-0.14520543813705444
aF-0.03477584198117256
aF-0.08529133349657059
aF0.06401938199996948
aF-0.0878378227353096
aF-0.04235047474503517
aF0.08141990751028061
aF0.11586486548185349
aF0.13057206571102142
aF-0.0881810262799263
aF-0.08709833025932312
aF0.06271598488092422
aF0.1258271187543869
aF-0.0361085869371891
aF-0.024232104420661926
aF-0.07528805732727051
aF0.03069758228957653
aF0.12654723227024078
aF0.003964390605688095
aF0.13616588711738586
aF-0.14280833303928375
aF0.03722512349486351
aF-0.05882153660058975
aF-0.12253132462501526
aF0.003420101245865226
aF0.037755087018013
aF-0.13264240324497223
aF0.08873564749956131
aF-0.030262181535363197
aF0.09131664037704468
aF0.10172271728515625
aF0.07573234289884567
aF0.2041284441947937
aF-0.13379114866256714
aF0.06900524348020554
aF0.07505440711975098
aF0.062410738319158554
aF0.12434836477041245
aF-0.04027929902076721
aF-0.024058423936367035
aF0.1393115371465683
aF-0.06784959137439728
aF0.019082391634583473
aF0.13449271023273468
aF0.14147202670574188
aF0.1306438446044922
aF-0.045527465641498566
aF0.1520206183195114
aF0.1251271814107895
aF0.010321593843400478
aF-0.01420378964394331
aF0.09964334964752197
aF0.06902054697275162
aF0.10505840927362442
aF-0.11794876307249069
aF0.041117217391729355
aF-0.0691988617181778
aF0.0031396641861647367
aF-0.002121050376445055
aF0.0960925817489624
aF0.0760597214102745
aF0.03624200075864792
aF0.06083441153168678
aF0.0009027227060869336
aF0.11814866214990616
aF-0.006499927956610918
aF-0.06506581604480743
aF0.06277533620595932
aF0.11996317654848099
aF-0.1525651514530182
aF0.032045576721429825
aF0.1072443276643753
aF0.10241090506315231
aF-0.07195959985256195
aF-0.02948480099439621
aF-0.026638876646757126
aF-0.06186388060450554
aF0.057891618460416794
aF0.07883603870868683
aF0.15301597118377686
aF-0.07782279700040817
aF0.11246182769536972
aF-0.0007564604165963829
aF0.01206518430262804
aF-0.0972449854016304
aF0.024900132790207863
aF-0.08858998864889145
aF-0.01142767071723938
aF-0.03859884291887283
aF0.06749891489744186
aF-0.0244035292416811
aF0.05933581665158272
aF-0.0557987242937088
aF-0.06470321863889694
aF-0.07308582961559296
aF-0.06739671528339386
aF-0.06129785627126694
aF-0.05860862508416176
aa(lp53
F0.068018838763237
aF-0.06511258333921432
aF-0.10632552951574326
aF-0.004889343865215778
aF-0.0010123475221917033
aF-0.14485785365104675
aF-0.03296796232461929
aF-0.09626798331737518
aF0.07092554867267609
aF-0.10598267614841461
aF-0.16914618015289307
aF-0.04620968922972679
aF-0.07312184572219849
aF0.1256362944841385
aF0.002503299620002508
aF0.013243341818451881
aF0.04868558049201965
aF0.01958966627717018
aF0.0503806509077549
aF-0.049682486802339554
aF-0.07780671864748001
aF-0.03857865557074547
aF-0.015488052740693092
aF0.09954934567213058
aF-0.029028717428445816
aF-0.22516898810863495
aF0.11243193596601486
aF0.06574633717536926
aF0.02694867178797722
aF0.016566652804613113
aF0.079606793820858
aF0.04076288640499115
aF0.0038452434819191694
aF0.003815139178186655
aF-0.0243415217846632
aF-0.09824289381504059
aF0.017399800941348076
aF-0.04076005518436432
aF0.09875720739364624
aF-0.025538919493556023
aF0.018853751942515373
aF0.01367277279496193
aF0.08681079000234604
aF-0.18000181019306183
aF-0.12724436819553375
aF-0.15687529742717743
aF0.0726797804236412
aF-0.08202259987592697
aF0.036600787192583084
aF0.03998352587223053
aF-0.026567712426185608
aF0.09015947580337524
aF0.08606331050395966
aF0.08216717839241028
aF0.11124614626169205
aF0.010372994467616081
aF0.11989676207304001
aF0.077046237885952
aF0.006022358313202858
aF-0.007875830866396427
aF-0.012552422471344471
aF0.06428279727697372
aF-0.03161510080099106
aF-0.022868679836392403
aF-0.036744698882102966
aF-0.15381960570812225
aF0.01491320040076971
aF0.012037993408739567
aF-0.10467249900102615
aF0.09977822005748749
aF-0.0393558032810688
aF-0.03519076108932495
aF-0.03314095735549927
aF0.08704278618097305
aF0.07223813980817795
aF0.15634261071681976
aF0.2209356725215912
aF-0.19741305708885193
aF0.09060268104076385
aF0.04386000707745552
aF0.06339950114488602
aF-0.09511614590883255
aF-0.08752410858869553
aF-0.09453367441892624
aF0.13638406991958618
aF0.061735764145851135
aF0.13354238867759705
aF-0.0016742622246965766
aF-0.05649818480014801
aF-0.05739694833755493
aF0.11441867798566818
aF0.008734329603612423
aF-0.11304144561290741
aF-0.12741707265377045
aF0.11884276568889618
aF0.014441135339438915
aF0.10021689534187317
aF0.02446568012237549
aF-0.14052167534828186
aF0.06736908107995987
aF0.007034717593342066
aF-0.07242656499147415
aF-0.00887321587651968
aF0.007531140930950642
aF0.02752072736620903
aF-0.07311613857746124
aF-0.059553537517786026
aF0.023296630010008812
aF-0.015697166323661804
aF0.05313896760344505
aF-0.2597472369670868
aF0.1191379576921463
aF0.003727196017280221
aF0.015767816454172134
aF0.18978051841259003
aF0.009321672841906548
aF0.025862496346235275
aF0.09366796910762787
aF0.08329054713249207
aF-0.10251399874687195
aF-0.10143722593784332
aF0.1250038892030716
aF-0.1039450466632843
aF-0.15240095555782318
aF0.016369828954339027
aF-0.09132243692874908
aF0.10609635710716248
aF-0.004933453164994717
aa(lp54
F-0.058633461594581604
aF-0.04435132071375847
aF-0.03446231409907341
aF-0.027138784527778625
aF-0.04016725346446037
aF0.0397038459777832
aF0.09047301113605499
aF-0.14481699466705322
aF0.05803960934281349
aF0.1520690619945526
aF-0.1999092549085617
aF0.06736090034246445
aF-0.07905178517103195
aF0.04159656912088394
aF-0.052521511912345886
aF0.07920311391353607
aF-0.07159227877855301
aF-0.044380877166986465
aF-0.05450787767767906
aF0.12426765263080597
aF0.02791409008204937
aF0.008990305475890636
aF-0.07256752997636795
aF-0.14848725497722626
aF0.04709453880786896
aF0.07764642685651779
aF-0.06343197822570801
aF-0.0817519873380661
aF-0.014815084636211395
aF0.08612654358148575
aF-0.051720693707466125
aF0.15016578137874603
aF-0.014650181867182255
aF-0.045433904975652695
aF0.08855413645505905
aF-0.023701459169387817
aF-0.019109200686216354
aF0.1253431737422943
aF0.07687624543905258
aF0.17747433483600616
aF-0.07529354840517044
aF-0.06272143870592117
aF0.13920992612838745
aF-0.13515542447566986
aF-0.12864430248737335
aF0.012591145932674408
aF-0.09737296402454376
aF0.0866578072309494
aF0.09714556485414505
aF-0.024470241740345955
aF-0.00428717490285635
aF-0.014370370656251907
aF-0.07307365536689758
aF-0.016166923567652702
aF-0.054355915635824203
aF-0.06466309726238251
aF0.06734679639339447
aF0.08414515852928162
aF-0.06239209324121475
aF0.03516414016485214
aF0.08909647911787033
aF-0.07236132025718689
aF0.10043787956237793
aF0.14329150319099426
aF0.08862343430519104
aF-0.10830437391996384
aF-0.054555606096982956
aF0.0729658454656601
aF-0.12385857105255127
aF-0.025942767038941383
aF0.059966154396533966
aF0.020715007558465004
aF-0.06646010279655457
aF-0.1190762147307396
aF-0.08114013075828552
aF0.07344024628400803
aF0.20317058265209198
aF-0.18466255068778992
aF-0.07441175729036331
aF0.09785472601652145
aF0.07524276524782181
aF-0.07945604622364044
aF0.11410018056631088
aF-0.14327576756477356
aF-0.028228210285305977
aF0.12776069343090057
aF0.005644070915877819
aF-0.014684508554637432
aF-0.01594666764140129
aF-0.012483680620789528
aF-0.08170834183692932
aF-0.03857174143195152
aF0.02858998253941536
aF-0.1842440366744995
aF-0.07380081713199615
aF0.0749385729432106
aF0.11117026209831238
aF-0.03579612076282501
aF0.03268555551767349
aF-0.007297688629478216
aF0.09731058776378632
aF-0.10417179018259048
aF-0.07425694912672043
aF0.04736971855163574
aF-0.10394890606403351
aF0.08011657744646072
aF0.007075234781950712
aF0.03362231329083443
aF0.055453911423683167
aF0.08392985910177231
aF-0.18370267748832703
aF0.04065224155783653
aF0.1059587225317955
aF0.02331068366765976
aF0.0771661251783371
aF0.034457288682460785
aF-0.15785257518291473
aF-0.08263398706912994
aF0.06101033091545105
aF0.09467175602912903
aF0.17752492427825928
aF-0.07435516268014908
aF-0.030647244304418564
aF-0.02172454074025154
aF-0.11806759983301163
aF-0.11633242666721344
aF-0.12378816306591034
aF-0.023048361763358116
aa(lp55
F0.013200420886278152
aF-0.0506570003926754
aF-0.02846229076385498
aF-0.07477626949548721
aF0.04748152568936348
aF0.0708886981010437
aF-0.01358732022345066
aF0.05940961465239525
aF0.00021256943000480533
aF-0.09203453361988068
aF0.21073630452156067
aF0.022494109347462654
aF0.16224133968353271
aF-0.05530484765768051
aF0.05975934490561485
aF-0.08449762314558029
aF-0.1581578403711319
aF0.12291271239519119
aF0.10435552895069122
aF0.11586359143257141
aF0.06717322766780853
aF-0.002527697244659066
aF-0.013614132069051266
aF-0.08956452459096909
aF-0.05065172165632248
aF-0.029137223958969116
aF0.015527956187725067
aF-0.14417073130607605
aF0.010812314227223396
aF0.09536358714103699
aF-0.10177511721849442
aF-0.02851347252726555
aF-0.0651787593960762
aF0.08073977380990982
aF-0.16061733663082123
aF0.01123860478401184
aF-0.18874311447143555
aF-0.02815360575914383
aF0.09779985249042511
aF-0.04414352402091026
aF0.0024838526733219624
aF0.11658154428005219
aF0.14010491967201233
aF-0.07658471167087555
aF0.12974685430526733
aF-0.09934401512145996
aF-0.0009913535322993994
aF-0.031474772840738297
aF0.01337235327810049
aF0.028726689517498016
aF-0.02078414149582386
aF0.09377386420965195
aF0.10665388405323029
aF-0.008100382052361965
aF-0.17995519936084747
aF-0.022199850529432297
aF-0.09642371535301208
aF0.0851559117436409
aF-0.16674929857254028
aF-0.11356977373361588
aF0.08571919053792953
aF0.008231798186898232
aF0.07283557206392288
aF0.004938115831464529
aF0.10173795372247696
aF0.10738692432641983
aF0.031022902578115463
aF-0.02806258574128151
aF0.12967073917388916
aF-0.0103311063721776
aF0.14641983807086945
aF-0.03245135396718979
aF0.18284699320793152
aF0.07750029861927032
aF0.10970320552587509
aF-0.08267441391944885
aF-0.0144398994743824
aF0.09291141480207443
aF-0.13799035549163818
aF-0.10752992331981659
aF0.10557316243648529
aF-0.06033176928758621
aF0.03549320250749588
aF-0.008275898173451424
aF0.07959973067045212
aF-0.1250666230916977
aF-0.08934410661458969
aF-0.09954871982336044
aF0.14184695482254028
aF0.004057357087731361
aF0.1971411108970642
aF-0.13748383522033691
aF-0.06212456151843071
aF0.09027889370918274
aF-0.13415494561195374
aF-0.11806286871433258
aF-0.09388657659292221
aF-0.017897652462124825
aF0.047253843396902084
aF-0.14108505845069885
aF-0.08241069316864014
aF-0.004518531262874603
aF-0.027376413345336914
aF-0.06457293033599854
aF0.01371750608086586
aF-0.005474907346069813
aF-0.09991946071386337
aF-0.052570853382349014
aF0.0993620753288269
aF-0.009199448861181736
aF0.00308580812998116
aF0.07888428866863251
aF-0.06173475831747055
aF-0.16637678444385529
aF-0.015360604040324688
aF-0.01765398681163788
aF0.03258710727095604
aF-0.0073839216493070126
aF0.029709862545132637
aF-0.11245632916688919
aF-0.09782103449106216
aF-0.06783336400985718
aF0.02357800304889679
aF-0.02457945980131626
aF-0.05185367166996002
aF0.044588059186935425
aF0.04229932278394699
aF-0.09577824175357819
aa(lp56
F-0.1042357087135315
aF0.027588030323386192
aF-0.08737370371818542
aF0.11294595152139664
aF-0.07363246381282806
aF-0.14404639601707458
aF-0.14659766852855682
aF-0.07224716991186142
aF0.0488017275929451
aF0.04564959928393364
aF-0.07476399093866348
aF0.12008177489042282
aF-0.17755413055419922
aF-0.04662248119711876
aF-0.016902504488825798
aF-0.044133011251688004
aF-0.1556575447320938
aF0.05827730894088745
aF-0.07736830413341522
aF0.003594521665945649
aF-0.0831376239657402
aF-0.10478930920362473
aF0.003738346742466092
aF0.04392089322209358
aF-0.036246947944164276
aF0.06959938257932663
aF0.06239180639386177
aF-0.04941798374056816
aF0.20084546506404877
aF-0.08238881826400757
aF0.03180330991744995
aF0.010940208099782467
aF-0.05162500962615013
aF-0.03342338278889656
aF-0.026614567264914513
aF-0.0601496547460556
aF-0.019646767526865005
aF0.11936978250741959
aF0.14971737563610077
aF-0.015738466754555702
aF0.0033004521392285824
aF-0.06100254878401756
aF-0.06676756590604782
aF0.051249995827674866
aF-0.17592968046665192
aF-0.08087693154811859
aF-0.03658560663461685
aF0.007125312462449074
aF0.07104385644197464
aF0.11952975392341614
aF-0.06743954122066498
aF-0.10221414268016815
aF0.004789672326296568
aF0.15618617832660675
aF0.03366556391119957
aF0.011859709396958351
aF0.030784735456109047
aF-0.12599369883537292
aF0.0002972358779516071
aF-0.04399101808667183
aF-0.0498034730553627
aF0.06970434635877609
aF0.048749156296253204
aF0.06090623140335083
aF-0.15623831748962402
aF0.1755613535642624
aF0.07051949203014374
aF-0.06617171317338943
aF-0.0810522809624672
aF-0.032355111092329025
aF-0.06869104504585266
aF-0.0023893893230706453
aF0.20969969034194946
aF0.0021664986852556467
aF0.11382473260164261
aF0.14847545325756073
aF0.06699920445680618
aF-0.04163552075624466
aF0.06599853932857513
aF-0.021124379709362984
aF0.07802800089120865
aF0.04317159950733185
aF-0.0045684692449867725
aF0.09065131843090057
aF0.12056733667850494
aF0.14258813858032227
aF0.13902007043361664
aF0.024691253900527954
aF0.050836242735385895
aF0.12125200033187866
aF0.0843866616487503
aF-0.04606803506612778
aF-0.05786271393299103
aF-0.15182167291641235
aF-0.02445104345679283
aF0.019422749057412148
aF0.009923947043716908
aF-0.08444621413946152
aF-0.10889769345521927
aF0.004901139996945858
aF0.21760012209415436
aF-0.035043343901634216
aF-0.10717819631099701
aF0.03494711592793465
aF-0.012123544700443745
aF0.015871115028858185
aF-0.026553692296147346
aF0.010142193175852299
aF-0.0013734649401158094
aF0.05375039950013161
aF-0.15519613027572632
aF0.11857880651950836
aF-0.13377439975738525
aF0.0044012125581502914
aF-0.012372266501188278
aF-0.03885951265692711
aF-0.007154274731874466
aF-0.016363991424441338
aF0.007543222047388554
aF-0.12373881042003632
aF-0.11054957658052444
aF0.10352202504873276
aF0.0971611961722374
aF-0.19700899720191956
aF-0.044927243143320084
aF-0.09620869159698486
aF0.01687242090702057
aF-0.14383821189403534
aa(lp57
F-0.07212570309638977
aF-0.05010749772191048
aF-0.12068266421556473
aF-0.06647150963544846
aF0.12769494950771332
aF-0.09069906920194626
aF0.17115357518196106
aF0.11070714890956879
aF-0.004372007213532925
aF0.12266223877668381
aF0.11810410022735596
aF-0.03095800057053566
aF0.12018570303916931
aF0.16179053485393524
aF-0.012400583364069462
aF-0.02518884651362896
aF-0.08795648068189621
aF0.052234627306461334
aF0.0028329328633844852
aF0.061269376426935196
aF0.007115060929208994
aF0.01726946420967579
aF-0.10759685188531876
aF0.021320942789316177
aF0.027987411245703697
aF0.006425170227885246
aF-0.05214732885360718
aF-0.06425277143716812
aF0.15106962621212006
aF0.014601189643144608
aF0.027001606300473213
aF0.12138832360506058
aF0.020495519042015076
aF-0.025656841695308685
aF-0.07100551575422287
aF-0.04830082505941391
aF-0.12098409980535507
aF-0.03576083108782768
aF0.02051752433180809
aF-0.0490267239511013
aF0.06163311377167702
aF0.08962026983499527
aF0.005919900722801685
aF0.09900368005037308
aF0.09931720793247223
aF-0.10873644053936005
aF0.07347921282052994
aF2.0275537337965943e-07
aF-0.17712430655956268
aF-0.15283441543579102
aF0.10019665956497192
aF-0.0389084555208683
aF0.07767709344625473
aF-0.06744460761547089
aF-0.0961303636431694
aF-0.053945641964673996
aF-0.07406686246395111
aF-0.12256834656000137
aF-0.019452983513474464
aF-0.08536025136709213
aF-0.14836753904819489
aF0.005851046647876501
aF-0.09820500016212463
aF-0.11893928796052933
aF-0.04587700590491295
aF0.1948733627796173
aF-0.058516789227724075
aF-0.09615248441696167
aF0.11747413873672485
aF-0.07504700124263763
aF0.17126384377479553
aF0.04190874844789505
aF0.13637208938598633
aF0.07703647762537003
aF-0.020439699292182922
aF-0.009997440502047539
aF-0.0819312259554863
aF-0.04293132945895195
aF-0.1055065244436264
aF-0.02318444475531578
aF-0.04321006312966347
aF-0.12423304468393326
aF0.10762110352516174
aF-0.054491057991981506
aF-0.05069705843925476
aF-0.1123552918434143
aF0.05233708396553993
aF-0.1065286174416542
aF0.16430261731147766
aF0.1668860912322998
aF0.12234864383935928
aF-0.15427301824092865
aF0.08531492203474045
aF0.12008479982614517
aF0.10718576610088348
aF-0.14931385219097137
aF0.06795211881399155
aF0.08938722312450409
aF-0.011298024095594883
aF-0.05495842546224594
aF-0.13892406225204468
aF-0.04036970064043999
aF0.02605499140918255
aF0.07901483029127121
aF0.04907276853919029
aF0.11168158054351807
aF0.09042266011238098
aF-0.01261984184384346
aF-0.1482284516096115
aF0.020726695656776428
aF0.01076563075184822
aF0.13154278695583344
aF-0.07123643904924393
aF-0.06275231391191483
aF-0.012224729172885418
aF-0.011139403097331524
aF-0.07661975920200348
aF0.05130462720990181
aF-0.0012579652247950435
aF0.025406548753380775
aF-0.0898347720503807
aF-0.08212695270776749
aF-0.06779960542917252
aF0.003897606860846281
aF0.00028552254661917686
aF0.10991526395082474
aF0.028851626440882683
aF-0.08880764991044998
aa(lp58
F-0.12172945588827133
aF-0.018342729657888412
aF-0.11885973811149597
aF-0.11705463379621506
aF-0.1261918544769287
aF-0.09121045470237732
aF-0.1666046679019928
aF0.07516025751829147
aF-0.10335292667150497
aF0.1647157371044159
aF-0.04683094844222069
aF0.019047332927584648
aF-0.05282225087285042
aF0.1004135012626648
aF0.007732566446065903
aF0.022126421332359314
aF-0.11945556104183197
aF-0.025079507380723953
aF-0.08715689927339554
aF-0.10063056647777557
aF-0.060657523572444916
aF0.13146591186523438
aF0.024304857477545738
aF0.07217644155025482
aF-0.14477528631687164
aF-0.14928731322288513
aF0.1403118520975113
aF0.17032432556152344
aF0.06217971071600914
aF0.18105977773666382
aF0.011821196414530277
aF-0.05655233934521675
aF0.13675567507743835
aF-0.037346743047237396
aF0.04478627070784569
aF-0.038894493132829666
aF0.017106615006923676
aF0.018505049869418144
aF-0.001619080314412713
aF-0.036684609949588776
aF-0.003879521507769823
aF0.0360637903213501
aF-0.007416833657771349
aF0.07960195094347
aF-0.07472755014896393
aF0.07050604373216629
aF-0.10558871924877167
aF0.03445970639586449
aF-0.03333038464188576
aF0.03828088939189911
aF-0.062314145267009735
aF0.011684786528348923
aF-0.029034815728664398
aF-0.03681674972176552
aF0.01952972449362278
aF-0.11766965687274933
aF-0.06720384955406189
aF0.031044406816363335
aF-0.09612953662872314
aF0.15995687246322632
aF-0.06279526650905609
aF0.06397679448127747
aF-0.05929083377122879
aF-0.20458488166332245
aF-0.03385240584611893
aF-0.10339082777500153
aF0.06286419183015823
aF-0.09718843549489975
aF-0.10018733143806458
aF0.06292294710874557
aF0.04431658610701561
aF0.0845591351389885
aF0.15124353766441345
aF-0.11990341544151306
aF0.11768384277820587
aF-0.049837540835142136
aF0.231265127658844
aF-0.17175956070423126
aF-0.024994688108563423
aF0.08224435895681381
aF-0.03833750635385513
aF-0.08328426629304886
aF-0.0822780579328537
aF-0.0769539400935173
aF0.11364255100488663
aF0.13091479241847992
aF-0.09453758597373962
aF-0.004264140967279673
aF-0.09887830913066864
aF-0.007946854457259178
aF0.026561956852674484
aF0.10027365386486053
aF0.07696164399385452
aF0.015976738184690475
aF-0.0837504118680954
aF-0.04077460244297981
aF0.14751431345939636
aF-0.022419609129428864
aF-0.07221423089504242
aF0.004233845043927431
aF0.13287171721458435
aF0.03431757539510727
aF0.029326429590582848
aF-0.07836157828569412
aF0.06857506185770035
aF-0.094755619764328
aF-0.054659124463796616
aF0.015098515897989273
aF0.0315009206533432
aF-0.09819822013378143
aF-0.002207163255661726
aF-0.05617859587073326
aF0.12409473210573196
aF-0.08454685658216476
aF-0.009984303265810013
aF0.12999364733695984
aF-0.02441544085741043
aF0.030500933527946472
aF-0.01599620096385479
aF-0.043973684310913086
aF0.19412745535373688
aF-0.040629904717206955
aF0.04104240611195564
aF0.07375023514032364
aF-0.05979153513908386
aF-0.09917234629392624
aF0.07911580801010132
aF-0.006914589088410139
aa(lp59
F-0.0822581946849823
aF0.09329413622617722
aF0.1410386860370636
aF-0.018719524145126343
aF0.028179634362459183
aF0.04559699445962906
aF-0.03498362377285957
aF-0.068538136780262
aF0.09039866924285889
aF-0.09510921686887741
aF0.10597110539674759
aF0.06122957915067673
aF0.12071358412504196
aF-0.13137564063072205
aF-0.0840049460530281
aF-0.13837893307209015
aF-0.017535394057631493
aF0.11390553414821625
aF0.02781839296221733
aF0.0933753028512001
aF-0.12323334068059921
aF0.017500393092632294
aF0.03207232803106308
aF-0.11028819531202316
aF-0.11786691844463348
aF-0.03953022137284279
aF0.1261100172996521
aF0.10240475088357925
aF0.13917149603366852
aF-0.13728328049182892
aF-0.13600173592567444
aF0.1228148564696312
aF-0.11786216497421265
aF0.10320136696100235
aF-0.11640030145645142
aF0.14516116678714752
aF-0.1703035980463028
aF0.10945632308721542
aF0.11734458059072495
aF0.0513242743909359
aF0.0661136656999588
aF0.07936235517263412
aF0.07216197997331619
aF0.0396878607571125
aF0.003304364625364542
aF-0.08433711528778076
aF0.019247157499194145
aF-0.008684615604579449
aF-0.05979512631893158
aF-0.0859796404838562
aF-0.08393314480781555
aF0.02232643961906433
aF0.005968484561890364
aF0.0013042623177170753
aF-0.07988006621599197
aF-0.051927052438259125
aF-0.005242172162979841
aF-0.13419967889785767
aF0.030370445922017097
aF-0.16599975526332855
aF-0.07709751278162003
aF0.031124120578169823
aF0.08010581880807877
aF-0.027918461710214615
aF0.11385100334882736
aF-0.07720797508955002
aF0.11080534011125565
aF0.11296336352825165
aF-0.035476911813020706
aF0.06551969796419144
aF0.11484693735837936
aF-0.053972028195858
aF-0.07464037835597992
aF-0.005783605854958296
aF0.14150825142860413
aF-0.08147204667329788
aF0.10282072424888611
aF0.05240742489695549
aF-0.11041232198476791
aF-0.13460229337215424
aF-0.08296353369951248
aF0.00696592079475522
aF-0.12521079182624817
aF0.15730564296245575
aF0.0448862686753273
aF0.03737068921327591
aF-0.0276863444596529
aF-0.03721991181373596
aF-0.10178346931934357
aF-0.09524405002593994
aF-0.0017671362729743123
aF0.11875700205564499
aF-0.06556426733732224
aF-0.002284461399540305
aF0.05581573024392128
aF-0.017164593562483788
aF-0.005106858443468809
aF0.030384285375475883
aF0.11748600751161575
aF0.02409745752811432
aF0.12617459893226624
aF-0.15013955533504486
aF0.015334738418459892
aF0.08635770529508591
aF0.09309680759906769
aF-0.015846699476242065
aF-0.006108451168984175
aF-0.11384787410497665
aF0.015238714404404163
aF0.09465768188238144
aF-0.14555910229682922
aF-0.012826264835894108
aF0.10770782083272934
aF-0.11318160593509674
aF-0.04415866360068321
aF0.08866956830024719
aF0.0734042227268219
aF0.05067843198776245
aF0.0391681082546711
aF0.090324766933918
aF0.0027936750557273626
aF0.08154821395874023
aF-0.16122019290924072
aF-0.013373969122767448
aF0.07410039752721786
aF0.01655755564570427
aF-0.11307762563228607
aF-0.1321197748184204
aa(lp60
F-0.05405222997069359
aF-0.012163044884800911
aF-0.11749996244907379
aF-0.14897896349430084
aF-0.1453494429588318
aF-0.09429926425218582
aF-0.10021931678056717
aF-0.1702875792980194
aF-0.09260191023349762
aF0.029788875952363014
aF0.03166519105434418
aF0.10757515579462051
aF-0.008513321168720722
aF0.10538234561681747
aF-0.14798051118850708
aF0.1261124312877655
aF-0.052038826048374176
aF-0.0643233060836792
aF-0.07421883940696716
aF0.005516157019883394
aF-0.08255380392074585
aF-0.02322283387184143
aF0.08831573277711868
aF-0.0854446068406105
aF-0.04488418251276016
aF-0.06153335049748421
aF-0.0916028618812561
aF0.0644664615392685
aF0.10156488418579102
aF0.016268206760287285
aF-0.02626962959766388
aF0.0708627849817276
aF-0.10980457067489624
aF0.003056500107049942
aF0.10355744510889053
aF0.025901686400175095
aF-0.07719754427671432
aF-0.0956137478351593
aF0.13266444206237793
aF0.04695405066013336
aF-0.10377281159162521
aF0.1221766471862793
aF-0.17110519111156464
aF0.03901051729917526
aF-0.11519724130630493
aF0.029873162508010864
aF0.10595113039016724
aF-0.030087970197200775
aF-0.03238886594772339
aF-0.03765637427568436
aF0.04303731769323349
aF-0.01757180690765381
aF0.08734852075576782
aF0.02980928309261799
aF-0.04574542120099068
aF0.04312868043780327
aF0.10217105597257614
aF0.037127599120140076
aF0.09053263813257217
aF0.03328839689493179
aF0.07459361851215363
aF0.028190266340970993
aF0.14329521358013153
aF0.1601238250732422
aF0.04768453165888786
aF-0.0799880176782608
aF-0.04637669771909714
aF-0.09673993289470673
aF-0.10246196389198303
aF-0.13664183020591736
aF0.07000251859426498
aF0.16673558950424194
aF0.12987932562828064
aF0.003907375503331423
aF0.0765756219625473
aF0.02621809020638466
aF0.2252224236726761
aF-0.026871830224990845
aF0.1228470429778099
aF0.11267612129449844
aF0.0395355224609375
aF-0.09352794289588928
aF-0.06973662227392197
aF-0.12390679121017456
aF-0.10430297255516052
aF0.13325300812721252
aF0.06417527049779892
aF-0.009222293272614479
aF-0.07468955963850021
aF-0.029938435181975365
aF0.007751758210361004
aF-0.007292555645108223
aF0.008609224110841751
aF0.06838203966617584
aF-0.08492350578308105
aF-0.07125653326511383
aF0.026139933615922928
aF-0.1456378549337387
aF-0.16527917981147766
aF-0.07909037172794342
aF-0.009558669291436672
aF-0.07305926084518433
aF-0.09044887125492096
aF0.14654244482517242
aF0.07794102281332016
aF0.04508114233613014
aF0.10798858106136322
aF-0.05326288193464279
aF-0.009014105424284935
aF0.15448102355003357
aF0.014638515189290047
aF0.015000627376139164
aF-0.13413022458553314
aF-0.016827289015054703
aF-0.030603645369410515
aF0.08909159898757935
aF-0.10049337148666382
aF0.0559614896774292
aF-0.10728400200605392
aF-0.0013634393690153956
aF0.02509787119925022
aF0.12163587659597397
aF-0.05819510295987129
aF0.13651897013187408
aF0.05392689257860184
aF0.0022009010426700115
aF0.13329052925109863
aF0.013707400299608707
aa.