(lp0
(lp1
F-0.007925366051495075
aF0.028912607580423355
aF0.07199259847402573
aF0.020338967442512512
aF-0.0756227970123291
aF-0.028682781383395195
aF-0.034800607711076736
aF-0.12008975446224213
aF0.06113918498158455
aF-0.024352319538593292
aF-0.11377154290676117
aF0.05717085301876068
aF-0.08880748599767685
aF-0.08316052705049515
aF0.34073618054389954
aF-0.08548834919929504
aF-0.08663341403007507
aF-0.03190915659070015
aF-0.18555867671966553
aF0.09021463990211487
aF0.0433557853102684
aF-0.008571693673729897
aF-0.23270714282989502
aF-0.0869252160191536
aF-0.03424025699496269
aF0.044762320816516876
aF-0.20183192193508148
aF-0.030629117041826248
aF0.03787057474255562
aF-0.09986146539449692
aF-0.08362911641597748
aF-0.12824611365795135
aF-0.05570416525006294
aF-0.017779285088181496
aF-0.08273545652627945
aF-0.07925388962030411
aF-0.03686890751123428
aF-0.038105208426713943
aF-0.003218738129362464
aF-0.09606236219406128
aF-0.04570615664124489
aF-0.04387640208005905
aF-0.07634051144123077
aF-0.021439461037516594
aF0.030339187011122704
aF-0.02176852524280548
aF0.001363802351988852
aF0.006188598927110434
aF0.08455352485179901
aF0.05521389842033386
aF-0.051539402455091476
aF0.01253463700413704
aF0.018647577613592148
aF0.056818969547748566
aF-0.06712916493415833
aF-0.0004300417494960129
aF-0.005480729974806309
aF0.06628923118114471
aF-0.028174061328172684
aF0.04220602288842201
aF0.015479808673262596
aF0.014584824442863464
aF-0.08751556277275085
aF-0.03553028032183647
aF-0.2571309804916382
aF-0.04829803481698036
aF-0.1444580852985382
aF-0.10498801618814468
aF-0.07546591758728027
aF0.03472337871789932
aF-0.017077285796403885
aF-0.05650166794657707
aF0.026250671595335007
aF0.05833332985639572
aF0.09852373600006104
aF-0.05267120152711868
aF0.02915470115840435
aF-0.153855100274086
aF0.06738752126693726
aF0.03195646405220032
aF-0.04072631523013115
aF-0.04808857664465904
aF-0.08691533654928207
aF0.04598529636859894
aF-0.09236738830804825
aF-0.07465366274118423
aF0.04665201157331467
aF0.001651052269153297
aF0.010135993361473083
aF-0.06613991409540176
aF0.20797428488731384
aF-0.060869913548231125
aF-0.05368131026625633
aF-0.04804753512144089
aF-0.05232096090912819
aF0.019050078466534615
aF-0.04092417657375336
aF-0.15929624438285828
aF0.006840825546532869
aF-0.032405659556388855
aF0.003517422592267394
aF0.2588394284248352
aF-0.03605610504746437
aF0.05409924313426018
aF-0.040584564208984375
aF0.045142821967601776
aF-0.172718808054924
aF-0.061141930520534515
aF0.046697571873664856
aF0.10009240359067917
aF-0.03878175467252731
aF-0.013058429583907127
aF-0.006925179623067379
aF0.019347380846738815
aF-0.2614710032939911
aF0.1308850646018982
aF-0.02212626487016678
aF-0.023203395307064056
aF0.02106623165309429
aF-0.057435546070337296
aF0.06907784938812256
aF-0.012970656156539917
aF-0.07602676004171371
aF-0.0946507453918457
aF-0.005600769072771072
aF-0.07720547169446945
aF-0.16221822798252106
aF0.01010385062545538
aa(lp2
F-0.015376059338450432
aF-0.06639821827411652
aF0.0583452433347702
aF0.06633501499891281
aF0.058313313871622086
aF0.016542846336960793
aF-0.022074341773986816
aF0.18560998141765594
aF-0.01840250752866268
aF-0.01962728425860405
aF0.033588431775569916
aF0.00046733414637856185
aF0.03304942697286606
aF0.0026439339853823185
aF-0.011525711044669151
aF-0.0433281809091568
aF0.03149912506341934
aF0.02699020318686962
aF-0.05158364027738571
aF-0.006207715254276991
aF-0.0524885393679142
aF-0.11538811773061752
aF0.04858675226569176
aF-0.0009979807073250413
aF-0.0001802982296794653
aF0.010465879924595356
aF0.11094789952039719
aF0.07799635827541351
aF0.056753985583782196
aF-0.07380804419517517
aF-0.05867112800478935
aF0.008604848757386208
aF0.047904808074235916
aF0.03686973452568054
aF-0.21969065070152283
aF-0.021016182377934456
aF0.11085411161184311
aF0.03347400203347206
aF0.06206817552447319
aF-0.13188068568706512
aF-0.030085895210504532
aF0.001455635647289455
aF0.30761680006980896
aF-0.027532441541552544
aF0.06399081647396088
aF-0.05219636484980583
aF0.08737901598215103
aF-0.004672293085604906
aF-0.04144708439707756
aF0.052396152168512344
aF0.005615881644189358
aF0.15181677043437958
aF-0.023680396378040314
aF0.007720903027802706
aF-0.026578523218631744
aF-0.026840128004550934
aF0.033781107515096664
aF0.047224950045347214
aF0.036440879106521606
aF-0.40623173117637634
aF-0.020903225988149643
aF0.06994149833917618
aF0.0006346487789414823
aF-0.022338123992085457
aF0.1006070151925087
aF-0.040927331894636154
aF0.249598428606987
aF0.08870445936918259
aF0.2666008770465851
aF0.048629842698574066
aF-0.002017896855250001
aF0.0044377208687365055
aF-0.05155791714787483
aF0.01532251387834549
aF0.06694869697093964
aF-0.016010748222470284
aF-0.06860886514186859
aF-0.009305445477366447
aF-0.030693020671606064
aF-0.040513258427381516
aF-0.06664828211069107
aF-0.0409066304564476
aF0.0513896569609642
aF-0.051184866577386856
aF-0.024830667302012444
aF-0.008026045747101307
aF-0.06642020493745804
aF-0.03081158921122551
aF0.07766443490982056
aF-0.044422030448913574
aF-0.21058857440948486
aF-0.04250124841928482
aF0.055587880313396454
aF0.040161654353141785
aF-0.06620995700359344
aF0.015250025317072868
aF-0.010680320672690868
aF-0.027090203016996384
aF-0.01071223709732294
aF0.03563377261161804
aF-0.05193624272942543
aF-0.05600656196475029
aF-0.0718206986784935
aF0.014536947011947632
aF0.011032829992473125
aF-0.0009226081310771406
aF0.3506481945514679
aF0.018599286675453186
aF0.03813628479838371
aF-0.09192963689565659
aF0.03054119274020195
aF0.05804118886590004
aF0.02562183514237404
aF-0.008205379359424114
aF-0.05485741049051285
aF-0.007819696329534054
aF0.11919201165437698
aF-0.008585365489125252
aF-0.006221911869943142
aF-0.10233527421951294
aF0.057247910648584366
aF-0.06324054300785065
aF-0.09274614602327347
aF0.01583663374185562
aF-0.09323075413703918
aF0.003373196814209223
aF-0.17801344394683838
aF-0.0021229605190455914
aa(lp3
F0.0845056027173996
aF-0.0708569586277008
aF0.11129817366600037
aF0.05055035278201103
aF-0.005710985977202654
aF-0.020766301080584526
aF-0.05195658653974533
aF-0.29831671714782715
aF-0.02917390502989292
aF0.047529689967632294
aF0.052041370421648026
aF-0.06840156018733978
aF0.029720041900873184
aF-0.11958053708076477
aF-0.053093455731868744
aF0.06746537983417511
aF-0.09051334112882614
aF0.01054501160979271
aF0.30054938793182373
aF0.07345899939537048
aF0.021091708913445473
aF0.035778578370809555
aF-0.17825566232204437
aF0.06558874994516373
aF0.07930455356836319
aF-0.002952314680442214
aF-0.12074165791273117
aF0.17538243532180786
aF0.023603124544024467
aF0.020842647179961205
aF-0.02357717789709568
aF-0.06367546319961548
aF-0.025774642825126648
aF0.04097970947623253
aF-0.0030089090578258038
aF0.02285117655992508
aF0.10206722468137741
aF-0.013614967465400696
aF0.013354786671698093
aF-0.007854904048144817
aF-0.01250302605330944
aF0.15373384952545166
aF0.04691590741276741
aF-0.003317959373816848
aF0.054489973932504654
aF-0.015014882199466228
aF-0.09728989750146866
aF-0.04273651912808418
aF0.07008172571659088
aF-0.08587983250617981
aF-0.15737873315811157
aF-0.01104846689850092
aF-0.012228719890117645
aF-0.10057135671377182
aF0.11220268160104752
aF-0.032684076577425
aF-0.07401134818792343
aF-0.029844515025615692
aF-0.06980061531066895
aF-0.16693036258220673
aF0.11819668859243393
aF-0.04848044365644455
aF0.123844213783741
aF0.013671685941517353
aF-0.21459706127643585
aF0.07112998515367508
aF-0.12405630201101303
aF0.08221270143985748
aF0.04476730152964592
aF-0.044728949666023254
aF-0.03458525612950325
aF-0.005859865341335535
aF0.06257567554712296
aF-0.05654583498835564
aF-0.15500852465629578
aF0.09209587424993515
aF-0.07774879783391953
aF0.14711366593837738
aF0.022793252021074295
aF-0.008905542083084583
aF0.01792234741151333
aF0.022689538076519966
aF0.05900853872299194
aF0.031509529799222946
aF0.01379553321748972
aF-0.03557737544178963
aF-0.08292371779680252
aF0.16478562355041504
aF-0.039948347955942154
aF-0.04517700895667076
aF-0.08047688752412796
aF-0.09051454067230225
aF0.09495004266500473
aF0.05756707116961479
aF-0.08044128119945526
aF-0.022751612588763237
aF0.021610502153635025
aF0.03892909735441208
aF-0.05284859612584114
aF0.038525789976119995
aF0.06906398385763168
aF-0.016736114397644997
aF0.06816279888153076
aF-0.08294712007045746
aF0.029214031994342804
aF-0.09898191690444946
aF-0.014797483570873737
aF-0.009566115215420723
aF-0.33148714900016785
aF-0.018550539389252663
aF0.06406841427087784
aF0.03937029093503952
aF-0.03364529088139534
aF-0.001968902302905917
aF-0.056804560124874115
aF-0.0017480894457548857
aF-0.042881082743406296
aF0.033008724451065063
aF-0.028851773589849472
aF0.1423870027065277
aF0.009207876399159431
aF0.12046761810779572
aF-0.08591455966234207
aF0.08282510936260223
aF-0.04995427653193474
aF-0.054507624357938766
aF0.15817824006080627
aF-0.011434373445808887
aa(lp4
F0.03181076794862747
aF0.08837077766656876
aF0.0842239037156105
aF0.021121308207511902
aF0.12495118379592896
aF-0.06528032571077347
aF0.06399884819984436
aF0.2832430899143219
aF0.048080842941999435
aF0.10510989278554916
aF0.051995083689689636
aF-0.14582039415836334
aF-0.11837123334407806
aF0.011530252173542976
aF0.11716725677251816
aF0.043689657002687454
aF0.06198378652334213
aF-0.02981889806687832
aF-0.009356486611068249
aF0.0685168132185936
aF-0.12502425909042358
aF-0.13186824321746826
aF0.029405126348137856
aF0.05867107957601547
aF-0.0911329984664917
aF-0.05418568104505539
aF-0.16543501615524292
aF0.0517185814678669
aF-0.04013761505484581
aF-0.13819310069084167
aF0.08475861698389053
aF0.10676572471857071
aF-0.08373171836137772
aF-0.07846203446388245
aF-0.0009035654366016388
aF0.018424779176712036
aF-0.04894599691033363
aF-0.042782559990882874
aF0.09661150723695755
aF-0.012346982024610043
aF-0.03395339474081993
aF0.04944724217057228
aF-0.23090989887714386
aF0.034124575555324554
aF0.020165272057056427
aF-0.06613519042730331
aF0.011404648423194885
aF-0.0933898538351059
aF0.11886337399482727
aF0.05180184543132782
aF0.11353947222232819
aF0.004187962505966425
aF0.06581289321184158
aF-0.05695512890815735
aF-0.07276515662670135
aF0.02187213860452175
aF0.07465685158967972
aF-0.030740203335881233
aF0.05023609846830368
aF-0.06844708323478699
aF-0.03416259214282036
aF-0.011383791454136372
aF0.0017838113708421588
aF0.08633054792881012
aF-0.08079653978347778
aF0.04690377041697502
aF0.19420988857746124
aF0.01772286556661129
aF0.09620968252420425
aF0.10721398890018463
aF0.04531896859407425
aF0.04472849890589714
aF-0.09645480662584305
aF-0.07845798134803772
aF0.009222147986292839
aF-0.021310247480869293
aF-0.11040154099464417
aF0.15138715505599976
aF0.1186465173959732
aF-0.07842891663312912
aF-0.046362295746803284
aF-0.04692092537879944
aF-0.003368170466274023
aF-0.011341064237058163
aF-0.0027696089819073677
aF-0.035869430750608444
aF-0.1519065499305725
aF0.05437441170215607
aF0.034054946154356
aF-0.09415547549724579
aF-0.040901683270931244
aF-0.015434833243489265
aF0.05568793788552284
aF-0.04665403813123703
aF-0.010899473913013935
aF0.04644517973065376
aF-0.03708917647600174
aF0.07409447431564331
aF-0.036223914474248886
aF-0.1077687218785286
aF-0.03157367184758186
aF-0.13378630578517914
aF-0.024029884487390518
aF0.13793672621250153
aF0.07385832071304321
aF0.010536715388298035
aF-0.08115716278553009
aF0.05209071934223175
aF0.13913355767726898
aF-0.13636869192123413
aF-0.013875479809939861
aF-0.10705976188182831
aF0.029751159250736237
aF-0.021926971152424812
aF0.22807714343070984
aF-0.12090641260147095
aF0.11966278403997421
aF0.05156620964407921
aF-0.06398706883192062
aF-0.12529097497463226
aF-0.0939350426197052
aF0.036457862704992294
aF-0.17752134799957275
aF-0.0022119167260825634
aF0.1178072988986969
aF0.01085470337420702
aF-0.18624885380268097
aF0.0912775918841362
aa(lp5
F-0.016073213890194893
aF0.17030252516269684
aF-0.046351078897714615
aF0.08812190592288971
aF0.09875227510929108
aF0.003071254352107644
aF-0.007267124019563198
aF0.005934033542871475
aF-0.0484793558716774
aF-0.028901759535074234
aF0.07680816948413849
aF0.023287519812583923
aF-0.05720411613583565
aF0.04527243971824646
aF0.1712641566991806
aF-0.0955619290471077
aF-0.14862234890460968
aF-0.05963084101676941
aF0.1819029003381729
aF0.06427522003650665
aF-0.03000500239431858
aF-0.00836935080587864
aF-0.07499731332063675
aF0.13679656386375427
aF-0.020642085000872612
aF-0.0013235000660642982
aF0.045902010053396225
aF0.18102231621742249
aF-0.08983036130666733
aF-0.13927794992923737
aF0.013168836012482643
aF-0.0484914556145668
aF-0.019940340891480446
aF-0.006174739450216293
aF0.028424905613064766
aF-0.036871906369924545
aF-0.23137298226356506
aF0.059696000069379807
aF0.017883451655507088
aF0.05013687536120415
aF-0.046405550092458725
aF-0.02521587908267975
aF0.1517154425382614
aF0.03702455386519432
aF-0.005239104852080345
aF-0.027801847085356712
aF0.030989782884716988
aF-0.11779684573411942
aF0.002066845539957285
aF0.0965050458908081
aF-0.04465682432055473
aF0.009350638836622238
aF-0.04706054925918579
aF-0.026477590203285217
aF-0.02964714728295803
aF0.06143416091799736
aF0.03402016684412956
aF-0.049198731780052185
aF-0.09456832706928253
aF0.026934025809168816
aF0.1497395634651184
aF-0.08905134350061417
aF0.08722890168428421
aF0.006017525214701891
aF-0.018073614686727524
aF0.13879869878292084
aF0.01014961302280426
aF-0.22107000648975372
aF-0.013934876769781113
aF0.07265269756317139
aF-0.04490257799625397
aF-0.05199127271771431
aF-0.11231669038534164
aF-0.06974338740110397
aF-0.05375051870942116
aF0.024021828547120094
aF-0.15905901789665222
aF-0.014610864222049713
aF0.06491897255182266
aF0.14262302219867706
aF-0.01747344247996807
aF0.0006446327897720039
aF-0.11221476644277573
aF0.08586901426315308
aF-0.009068901650607586
aF-0.006820675916969776
aF-0.05865095555782318
aF0.043984945863485336
aF-0.011119169183075428
aF-0.1494056135416031
aF0.05964409559965134
aF-0.018621118739247322
aF0.0017721735639497638
aF0.17595362663269043
aF0.1605660617351532
aF-0.06166360154747963
aF-0.07350033521652222
aF-0.023926017805933952
aF-0.004394230432808399
aF-0.009097178466618061
aF0.07830294221639633
aF0.0876144990324974
aF0.06825954467058182
aF-0.046069297939538956
aF-0.015441596508026123
aF-0.2634029686450958
aF-0.09990164637565613
aF-0.16724781692028046
aF-0.10925789922475815
aF0.06517719477415085
aF0.02396440878510475
aF-0.09048682451248169
aF0.024988356977701187
aF-0.08852442353963852
aF-0.0913834348320961
aF-0.02859893999993801
aF-0.08478614687919617
aF0.0776740312576294
aF0.09021521359682083
aF-0.05186784267425537
aF-0.11879455298185349
aF-0.006185631267726421
aF0.07509710639715195
aF0.15377992391586304
aF0.021383538842201233
aF0.03918859362602234
aF0.23270095884799957
aF0.07511164247989655
aa(lp6
F0.008349512703716755
aF0.16063177585601807
aF-0.10866814106702805
aF0.025401897728443146
aF-0.08713334053754807
aF-0.05463104322552681
aF-0.058145467191934586
aF0.07369939237833023
aF-0.03195837885141373
aF0.040554165840148926
aF-0.07615404576063156
aF-0.04499833658337593
aF0.047017332166433334
aF0.048799775540828705
aF-0.035268306732177734
aF-0.0579751618206501
aF-0.05383986979722977
aF0.11853116750717163
aF0.08807728439569473
aF0.019095608964562416
aF0.1654558777809143
aF-0.04949858784675598
aF0.2759110927581787
aF-0.12308275699615479
aF0.00023306476941797882
aF0.07511886954307556
aF0.05785563960671425
aF-0.09550054371356964
aF0.13320662081241608
aF0.0360584482550621
aF-0.04663052409887314
aF-0.06917594373226166
aF-0.021501857787370682
aF-0.0576736144721508
aF0.0790928527712822
aF0.0035907390993088484
aF-0.18738600611686707
aF-0.05544474720954895
aF0.005538600962609053
aF-0.08620516955852509
aF0.01574089378118515
aF0.14735352993011475
aF0.20764483511447906
aF-0.012192029505968094
aF0.05148477479815483
aF-0.10318613797426224
aF-0.059218551963567734
aF0.0058092703111469746
aF0.020048243924975395
aF0.1867620348930359
aF-0.026208654046058655
aF-0.07121668010950089
aF-0.06898155063390732
aF-0.0004350307572167367
aF0.22620747983455658
aF-0.03337758406996727
aF-0.014414922334253788
aF-0.07231074571609497
aF0.15680505335330963
aF0.09424007683992386
aF0.04487645626068115
aF-0.11008921265602112
aF-0.08743889629840851
aF0.1548561453819275
aF0.022651979699730873
aF0.1440841108560562
aF-0.10037693381309509
aF-0.005991740617901087
aF-0.05939164012670517
aF-0.03826914727687836
aF0.08719898760318756
aF0.0388571172952652
aF-0.14342039823532104
aF0.004066973924636841
aF-0.03715413063764572
aF-0.04436111822724342
aF-0.17664238810539246
aF0.014518086798489094
aF0.0029412340372800827
aF-0.047440383583307266
aF0.014651450328528881
aF0.028827806934714317
aF-0.07091476023197174
aF0.10011523216962814
aF0.0244937464594841
aF-0.001287248800508678
aF0.00025774852838367224
aF-0.16204231977462769
aF-0.012362548150122166
aF-0.07092547416687012
aF0.053843144327402115
aF0.09930998831987381
aF-0.12593500316143036
aF0.022352589294314384
aF0.038096703588962555
aF-0.02230476215481758
aF-0.04800790920853615
aF0.16659127175807953
aF-0.002835577353835106
aF-0.04000294208526611
aF0.08995470404624939
aF-0.09822158515453339
aF0.09740834683179855
aF-0.036675676703453064
aF-0.049530353397130966
aF-0.02581661380827427
aF-0.07294955104589462
aF-0.117022305727005
aF-0.12151359021663666
aF-0.03407824784517288
aF0.006158085074275732
aF-0.10462624579668045
aF-0.11969316005706787
aF-0.08912376314401627
aF-0.13149261474609375
aF-0.11752842366695404
aF-0.05563606694340706
aF0.020689478144049644
aF0.05639457330107689
aF0.0563940592110157
aF0.08542948961257935
aF0.1976899355649948
aF0.07109355181455612
aF-0.03467337042093277
aF0.03677263855934143
aF-0.049624234437942505
aF0.022098787128925323
aF-0.0013719715643674135
aa(lp7
F-0.0010093551827594638
aF-0.04969064146280289
aF-0.12857934832572937
aF0.021789953112602234
aF-0.19043053686618805
aF0.05974189564585686
aF0.03119184635579586
aF0.00765276700258255
aF-0.06032142415642738
aF0.07383622229099274
aF-0.040775664150714874
aF-0.01572832278907299
aF-0.04105398803949356
aF-0.09666423499584198
aF-0.10222461074590683
aF0.09971383213996887
aF0.014440779574215412
aF-0.003337083151564002
aF0.030883878469467163
aF0.04902925342321396
aF-0.03355589881539345
aF0.03945152088999748
aF0.02524462901055813
aF-0.009528078138828278
aF-0.15357130765914917
aF-0.11709821969270706
aF0.22225075960159302
aF-0.09493950754404068
aF0.0021603479981422424
aF0.041764914989471436
aF0.04174536466598511
aF-0.00550837442278862
aF-0.11383075267076492
aF-0.014944014139473438
aF0.20821523666381836
aF0.034068312495946884
aF-0.11678886413574219
aF0.014333752915263176
aF0.04558867961168289
aF0.29527226090431213
aF-0.032586805522441864
aF-0.037814944982528687
aF-0.08677629381418228
aF0.0063831680454313755
aF-0.057199858129024506
aF-0.0076778423972427845
aF-0.014183473773300648
aF-0.0008256200235337019
aF-0.02854476310312748
aF-0.0999264121055603
aF-0.11353965848684311
aF0.03274783492088318
aF0.03822014108300209
aF0.05941446125507355
aF0.07265519350767136
aF0.03179730102419853
aF0.010491536930203438
aF0.05587291345000267
aF0.025890380144119263
aF-0.28693875670433044
aF-0.1471717655658722
aF-0.13267290592193604
aF0.03574085608124733
aF-0.07109956443309784
aF-0.11543027311563492
aF-0.0785490870475769
aF-0.07280495017766953
aF0.1336737871170044
aF-0.09425999969244003
aF-0.15313225984573364
aF0.028317591175436974
aF0.0790039673447609
aF0.0426618717610836
aF0.011006731539964676
aF-0.1623636931180954
aF0.047026123851537704
aF-0.030471544712781906
aF-0.010801254771649837
aF-0.06050178036093712
aF-0.1255670189857483
aF-0.0023599702399224043
aF0.06750331073999405
aF0.01897723600268364
aF0.03036068193614483
aF-0.0031112900469452143
aF0.061253197491168976
aF0.0670204758644104
aF0.14541135728359222
aF0.04054291918873787
aF0.09272501617670059
aF0.11995631456375122
aF-0.10042708367109299
aF0.0029363571666181087
aF-0.12775500118732452
aF0.010200516320765018
aF0.034947190433740616
aF0.04318198561668396
aF-0.09154294431209564
aF0.010605843737721443
aF-0.028292685747146606
aF0.07855980098247528
aF0.11932709068059921
aF-0.16381357610225677
aF-0.011882968246936798
aF0.1134205013513565
aF0.19341866672039032
aF-0.11761532723903656
aF-0.03461660072207451
aF0.01893172599375248
aF0.03253457322716713
aF0.20227228105068207
aF-0.027692172676324844
aF0.018299996852874756
aF-0.071855828166008
aF0.1412537842988968
aF0.04651177302002907
aF-0.1071481928229332
aF0.007989670149981976
aF-0.012494008056819439
aF0.07067286223173141
aF0.05537141114473343
aF0.06824227422475815
aF0.02121739648282528
aF0.0012446590699255466
aF-0.07917998731136322
aF0.027624590322375298
aF0.02810526266694069
aF-0.029119793325662613
aa(lp8
F0.08116396516561508
aF0.009649817831814289
aF-0.16371743381023407
aF0.04754231870174408
aF0.02433525025844574
aF-0.06286223232746124
aF0.06388415396213531
aF0.003921878058463335
aF-0.0543447844684124
aF-0.038366928696632385
aF-0.1321416050195694
aF-0.09732552617788315
aF0.05603347346186638
aF-0.029299458488821983
aF-0.11127731949090958
aF-0.03945102170109749
aF0.034882690757513046
aF0.12790560722351074
aF0.004429693333804607
aF-0.03518121689558029
aF0.01610291190445423
aF0.12517794966697693
aF-0.08755934983491898
aF-0.061284132301807404
aF0.028083674609661102
aF0.13703247904777527
aF-0.16445434093475342
aF-0.17953060567378998
aF0.08015672862529755
aF-0.12367726117372513
aF-0.020189788192510605
aF0.07688537985086441
aF-0.028611043468117714
aF-0.03926010802388191
aF0.12291456013917923
aF0.008910110220313072
aF0.05059458315372467
aF-0.10971453785896301
aF-0.0110988300293684
aF0.14400139451026917
aF0.0021868301555514336
aF-0.07821951806545258
aF0.11386831849813461
aF0.10893811285495758
aF-0.03526529297232628
aF-0.024090271443128586
aF-0.007654729764908552
aF0.14841480553150177
aF-0.04597149044275284
aF0.05814855173230171
aF0.05770840123295784
aF-0.0735531598329544
aF-0.01547895185649395
aF0.02742822840809822
aF-0.11016754060983658
aF-0.06412649899721146
aF0.06025252863764763
aF0.0627819299697876
aF0.18856965005397797
aF0.1635022908449173
aF-0.21230830252170563
aF-0.0037090275436639786
aF-0.06119342893362045
aF-0.03274338319897652
aF-0.09000604599714279
aF-0.14051266014575958
aF0.12787500023841858
aF-0.2786816358566284
aF-0.10118891298770905
aF-0.07924918085336685
aF0.019822247326374054
aF0.0462215319275856
aF0.1433314085006714
aF0.03376227617263794
aF-0.04157019779086113
aF-0.0785650983452797
aF0.13053010404109955
aF0.074446901679039
aF-0.015747588127851486
aF0.09654132276773453
aF0.05931901931762695
aF-0.07118292152881622
aF0.11607391387224197
aF0.0031933949794620275
aF0.04755625128746033
aF0.05456965044140816
aF-0.0071905567310750484
aF-0.006133544724434614
aF-0.03371185064315796
aF0.060702692717313766
aF0.1935320496559143
aF0.09762734919786453
aF-0.12914465367794037
aF0.03070981055498123
aF0.05288892984390259
aF-0.010750713758170605
aF-0.007788775954395533
aF0.17974136769771576
aF-0.13446304202079773
aF-0.09890909492969513
aF-0.11683780699968338
aF-0.09444420039653778
aF0.022266795858740807
aF0.027269581332802773
aF-0.09738168865442276
aF0.08361668139696121
aF-0.0322704091668129
aF0.010795962996780872
aF-0.049200572073459625
aF0.01756962016224861
aF0.04281868040561676
aF0.0030213305726647377
aF0.044908683747053146
aF0.07854030281305313
aF-0.1897864192724228
aF0.1317925751209259
aF0.03623112291097641
aF0.004112142138183117
aF0.01680801250040531
aF-0.06682039797306061
aF-0.0460783988237381
aF-0.06909500062465668
aF0.03648881986737251
aF0.058027468621730804
aF-0.05481336638331413
aF-0.055624570697546005
aF0.0004711091169156134
aF-0.012755054980516434
aa(lp9
F-0.06486158818006516
aF0.0755237266421318
aF0.056573767215013504
aF-0.027683360502123833
aF-0.037791285663843155
aF-0.09955855458974838
aF0.016006210818886757
aF0.12342020124197006
aF-0.13406603038311005
aF-0.044975969940423965
aF-0.07773011922836304
aF-0.12167608737945557
aF-0.026234330609440804
aF0.046751413494348526
aF0.10908111929893494
aF-0.06353409588336945
aF-0.053420890122652054
aF-0.014527658000588417
aF-0.13314026594161987
aF-0.08766671270132065
aF0.001080018701031804
aF-0.12355416268110275
aF-0.08683265000581741
aF0.06654974073171616
aF0.09665094316005707
aF-0.07877689599990845
aF0.0778605043888092
aF-0.12963207066059113
aF-0.05060289427638054
aF0.17113246023654938
aF0.04522440582513809
aF-0.017737435176968575
aF0.0952024832367897
aF-0.15096376836299896
aF-0.12659551203250885
aF-0.03062676452100277
aF0.028134308755397797
aF0.09323333203792572
aF-0.03331102803349495
aF-0.08042321354150772
aF-0.012006307020783424
aF0.042382948100566864
aF0.011173001490533352
aF-0.04660888761281967
aF-0.19025954604148865
aF-0.03590145334601402
aF0.020084626972675323
aF-0.10330123454332352
aF-0.06907413899898529
aF-0.08288749307394028
aF0.08049513399600983
aF0.02544242888689041
aF0.03362373635172844
aF0.06948455423116684
aF0.08658362925052643
aF0.07948850095272064
aF0.02511894702911377
aF0.06174622103571892
aF-0.09462272375822067
aF-0.01896176114678383
aF-0.03323523327708244
aF0.08894239366054535
aF-0.09741267561912537
aF-0.01986042968928814
aF-0.07985495775938034
aF0.20079684257507324
aF-0.05067520588636398
aF-0.012053324840962887
aF0.015686558559536934
aF-0.01943252980709076
aF0.0012461782898753881
aF-0.02696710079908371
aF-0.2662632465362549
aF-0.08331964910030365
aF0.018807070329785347
aF-0.17305482923984528
aF-0.07274845242500305
aF-0.025253670290112495
aF0.10128355026245117
aF0.012594224885106087
aF0.10377725958824158
aF0.033862628042697906
aF-0.0814632773399353
aF-0.005208335351198912
aF-0.006518876645714045
aF-0.0023150371853262186
aF0.16127364337444305
aF-0.04113831743597984
aF0.0386057049036026
aF0.06881115585565567
aF-0.036691710352897644
aF0.056575823575258255
aF-0.026727110147476196
aF-0.026312099769711494
aF0.11885286122560501
aF0.11744213849306107
aF0.01333944033831358
aF-0.07756388932466507
aF0.06261040270328522
aF0.07082779705524445
aF0.05841914936900139
aF-0.11976973712444305
aF0.0713823065161705
aF0.031077733263373375
aF0.04822397604584694
aF0.040259405970573425
aF-0.07709519565105438
aF-0.08058377355337143
aF0.27428317070007324
aF0.10264653712511063
aF-0.01863640546798706
aF-0.027463093400001526
aF-0.023085173219442368
aF-0.06268664449453354
aF0.15095371007919312
aF-0.04352092370390892
aF0.07006833702325821
aF-0.08160996437072754
aF0.030038734897971153
aF0.10904120653867722
aF0.14982323348522186
aF0.011543362401425838
aF0.11758189648389816
aF-0.05722026154398918
aF0.24949681758880615
aF0.09187093377113342
aF-0.1105344370007515
aF0.03820685297250748
aa(lp10
F-0.12372374534606934
aF-0.03444896638393402
aF-0.11258728057146072
aF-0.05742477998137474
aF0.15274348855018616
aF0.09560275077819824
aF-0.13300922513008118
aF-0.06922891736030579
aF-0.02579508349299431
aF-0.09134797006845474
aF-0.011688589118421078
aF-0.07663729786872864
aF-0.08226844668388367
aF-0.0027543751057237387
aF-0.018016042187809944
aF0.08122339099645615
aF0.06718506664037704
aF0.07943203300237656
aF0.00880424678325653
aF-0.08296395093202591
aF-0.013553624972701073
aF0.022798780351877213
aF0.0785142183303833
aF-0.0354597344994545
aF-0.13515818119049072
aF0.13534826040267944
aF-0.0039021263364702463
aF0.018933778628706932
aF0.010501389391720295
aF-0.026954568922519684
aF0.0199446901679039
aF0.09374776482582092
aF0.1622060090303421
aF0.02744274213910103
aF-0.11546158790588379
aF-0.02252943627536297
aF0.06042147055268288
aF-0.22197136282920837
aF-0.10764749348163605
aF0.2549380660057068
aF0.0067247552797198296
aF-0.08113184571266174
aF-0.061668287962675095
aF0.029150530695915222
aF0.11069198697805405
aF0.18137629330158234
aF0.016979118809103966
aF0.1529308259487152
aF0.03423803299665451
aF-0.03695452958345413
aF0.07538808137178421
aF-0.05104352533817291
aF-0.013275429606437683
aF-0.06316201388835907
aF-0.01931382156908512
aF-0.07464390248060226
aF-0.028541680425405502
aF-0.05277261510491371
aF0.001562596415169537
aF-0.13502168655395508
aF0.005043894052505493
aF-0.030370507389307022
aF0.007304830476641655
aF-0.053283244371414185
aF0.15291699767112732
aF-0.00334190484136343
aF0.03231886774301529
aF-0.08607085049152374
aF0.042903341352939606
aF-0.012692638672888279
aF-0.027818812057375908
aF-0.013703668490052223
aF0.014434983022511005
aF0.007267181761562824
aF0.005941647104918957
aF0.0036656176671385765
aF-0.05245097354054451
aF-0.02983415685594082
aF0.030985260382294655
aF0.0017176688415929675
aF0.10356077551841736
aF-0.049933258444070816
aF0.20030172169208527
aF-0.23452128469944
aF-0.002777467016130686
aF0.040097467601299286
aF0.13878318667411804
aF-0.019165288656949997
aF-0.16680416464805603
aF0.007879733107984066
aF-0.12146327644586563
aF-0.099326953291893
aF-0.05185956880450249
aF0.04135318472981453
aF0.0795951560139656
aF0.047309357672929764
aF-0.08379567414522171
aF-0.07615815103054047
aF-0.03181901201605797
aF0.08415765315294266
aF-0.02658708021044731
aF-0.02037636749446392
aF0.14053142070770264
aF0.04602116718888283
aF-0.07678144425153732
aF0.07203645259141922
aF0.11744147539138794
aF0.08510203659534454
aF-0.011494026519358158
aF-0.17037227749824524
aF-0.14222416281700134
aF0.16333970427513123
aF0.02384646050632
aF-0.18211963772773743
aF-0.12051155418157578
aF0.045343466103076935
aF0.08378919214010239
aF-0.008840148337185383
aF0.04137599095702171
aF0.10940485447645187
aF0.02275378257036209
aF0.005357240792363882
aF-0.08466772735118866
aF-0.140700563788414
aF0.008096171543002129
aF0.06287367641925812
aF0.1426163762807846
aF-0.06325744837522507
aa(lp11
F-0.018370259553194046
aF0.07353967428207397
aF0.09086282551288605
aF0.04261571541428566
aF-0.0025049876421689987
aF0.14403939247131348
aF0.031904760748147964
aF-0.15081040561199188
aF0.10465651005506516
aF-0.02406611293554306
aF0.11895385384559631
aF0.08796615153551102
aF0.09535275399684906
aF0.09045980125665665
aF0.0401407815515995
aF0.06417687982320786
aF0.03448493778705597
aF-0.12636740505695343
aF-0.07459433376789093
aF0.030139846727252007
aF0.0666661486029625
aF0.04105943441390991
aF-0.16345100104808807
aF0.03947782516479492
aF-0.033815719187259674
aF-0.040139339864254
aF0.2006736397743225
aF0.07283845543861389
aF-0.01667052134871483
aF0.03423549234867096
aF0.023438410833477974
aF0.01692216470837593
aF-0.12288831919431686
aF0.09052661806344986
aF0.058799996972084045
aF-0.026332102715969086
aF-0.03753726929426193
aF0.0047716801054775715
aF-0.04277506098151207
aF-0.22958563268184662
aF0.11343982815742493
aF0.0722050815820694
aF-0.06181865930557251
aF-0.0460255965590477
aF0.06306155771017075
aF0.0428583025932312
aF-0.13178420066833496
aF0.02088277041912079
aF0.0054103909060359
aF0.08293943852186203
aF0.005240590777248144
aF-0.08443135023117065
aF0.03579370677471161
aF0.0720904991030693
aF0.09618862718343735
aF0.06142750754952431
aF-0.010781408287584782
aF0.054667435586452484
aF-0.19485168159008026
aF0.07176902890205383
aF0.08259707689285278
aF-0.02940170094370842
aF-0.1127820834517479
aF-0.06775088608264923
aF0.27520039677619934
aF-0.05906493961811066
aF-0.21238471567630768
aF0.15849685668945312
aF-0.003922146279364824
aF0.0033581978641450405
aF-0.04888274893164635
aF-0.14195558428764343
aF0.08816669136285782
aF-0.055726308375597
aF0.08845067769289017
aF0.019530531018972397
aF0.06339772045612335
aF-0.15931262075901031
aF-0.10360868275165558
aF0.043612394481897354
aF-0.005656745284795761
aF0.14487968385219574
aF-0.02922826260328293
aF-0.020471487194299698
aF-0.010941457003355026
aF-0.07077894359827042
aF-0.04143575578927994
aF0.021100632846355438
aF0.007363352458924055
aF0.02121482975780964
aF0.09153438359498978
aF0.02811659500002861
aF-0.0024105519987642765
aF0.030305063351988792
aF-0.20949916541576385
aF-0.08070427179336548
aF0.07662225514650345
aF-0.07454473525285721
aF0.08239789307117462
aF-0.06572457402944565
aF0.030279068276286125
aF-0.07511191070079803
aF0.00725045520812273
aF-0.03778143227100372
aF-0.01540391892194748
aF-0.004358257632702589
aF-0.09516769647598267
aF0.05677302926778793
aF0.06901652365922928
aF0.13624301552772522
aF-0.13382616639137268
aF-0.04631419852375984
aF0.0759572759270668
aF0.010367211885750294
aF0.20985987782478333
aF-0.15120971202850342
aF-0.08233129233121872
aF-0.09196444600820541
aF0.059616509824991226
aF0.0487254373729229
aF0.08914933353662491
aF0.013391434215009212
aF0.0005659140879288316
aF-0.05989687889814377
aF0.12841534614562988
aF0.03718562424182892
aF0.06206352636218071
aF-0.03374480828642845
aa(lp12
F0.06257089227437973
aF0.022877072915434837
aF-0.050760287791490555
aF0.10724453628063202
aF0.12828825414180756
aF0.17239277064800262
aF-0.013689487241208553
aF-0.04809657484292984
aF0.060211531817913055
aF-0.04455671086907387
aF-0.07149004936218262
aF-0.014394858852028847
aF0.06904646754264832
aF0.07508064806461334
aF-0.002733621746301651
aF-0.08420608192682266
aF0.08592874556779861
aF0.09437751024961472
aF0.027668431401252747
aF0.009050676599144936
aF0.058674655854701996
aF0.10431303083896637
aF-0.04779275506734848
aF-0.017216358333826065
aF0.010368246585130692
aF0.06670486927032471
aF0.06826704740524292
aF-0.09257014095783234
aF0.14133815467357635
aF-0.23113131523132324
aF0.08139076828956604
aF0.03802023082971573
aF-0.09697753936052322
aF-0.010553179308772087
aF0.20326733589172363
aF0.07775858789682388
aF0.0740794762969017
aF-0.06387868523597717
aF-0.011091655120253563
aF0.09102386236190796
aF0.00316822761669755
aF-0.13468219339847565
aF-0.08612062782049179
aF0.09865393489599228
aF-0.01724114641547203
aF0.04896283894777298
aF-0.04785754904150963
aF0.15135101974010468
aF0.013121845200657845
aF0.03915155306458473
aF0.11265616118907928
aF-0.032344263046979904
aF0.027548013255000114
aF-0.06559401005506516
aF0.015724781900644302
aF-0.10489942133426666
aF0.05855385214090347
aF0.06377646327018738
aF0.09225555509328842
aF0.16853779554367065
aF-0.1290392279624939
aF0.2348373830318451
aF-0.10206959396600723
aF-0.031983986496925354
aF0.04603508487343788
aF-0.1430770456790924
aF0.014311982318758965
aF-0.23796840012073517
aF-0.2425052970647812
aF-0.009115630760788918
aF-0.05600934103131294
aF-0.11024672538042068
aF0.12157068401575089
aF0.04165775328874588
aF0.09834044426679611
aF0.027461552992463112
aF-0.029755394905805588
aF0.05552991107106209
aF0.1602323055267334
aF-0.05493966117501259
aF0.006978420540690422
aF-0.04061361402273178
aF0.09059278666973114
aF0.05135977268218994
aF0.006527351215481758
aF0.025146495550870895
aF-0.05071346089243889
aF-0.03175370767712593
aF-0.03350922092795372
aF-0.012373694218695164
aF0.11771854013204575
aF0.014456459321081638
aF-0.025922421365976334
aF0.020995523780584335
aF-0.11720360815525055
aF-0.13821053504943848
aF0.09213834255933762
aF0.18945260345935822
aF0.036057230085134506
aF0.07711638510227203
aF-0.018155323341488838
aF-0.0019262238638475537
aF0.047458428889513016
aF-0.010457043536007404
aF-0.10184675455093384
aF0.004548251163214445
aF0.09680351614952087
aF0.017572006210684776
aF0.13334786891937256
aF-0.09813560545444489
aF0.011574983596801758
aF-0.022699974477291107
aF0.13275207579135895
aF0.1248704195022583
aF-0.016237709671258926
aF-0.07969249039888382
aF-0.09670422971248627
aF-0.005946415476500988
aF-0.050262656062841415
aF0.08614502102136612
aF0.09946723282337189
aF-0.01709177903831005
aF0.05956302955746651
aF0.030977435410022736
aF-0.12190965563058853
aF0.000785280775744468
aF-0.055195294320583344
aF0.009714769199490547
aa(lp13
F0.0646900162100792
aF0.18599861860275269
aF-0.02791852131485939
aF-0.07134191691875458
aF0.07836361974477768
aF-0.06781695038080215
aF0.028561193495988846
aF-0.04035097733139992
aF0.13157545030117035
aF0.11562223732471466
aF0.09358970820903778
aF0.010393371805548668
aF-0.00013198750093579292
aF0.034611672163009644
aF-0.010520176962018013
aF0.12755146622657776
aF-0.1508244127035141
aF0.0018654653104022145
aF-0.021917611360549927
aF-0.06484635174274445
aF-0.07616457343101501
aF-0.02084597386419773
aF0.21387214958667755
aF-0.07511714100837708
aF-0.08067353814840317
aF-0.019241537898778915
aF-0.06470230966806412
aF0.08992361277341843
aF-0.2112274467945099
aF0.07266954332590103
aF0.07704227417707443
aF-0.029723189771175385
aF0.09344880282878876
aF-0.0554458424448967
aF-0.002780656097456813
aF-0.032036516815423965
aF-0.10421023517847061
aF-0.11623860895633698
aF-0.07043406367301941
aF-0.052602000534534454
aF-0.045598503202199936
aF0.038108330219984055
aF0.09398510307073593
aF0.005351976025849581
aF0.057625912129879
aF-0.09794992208480835
aF-0.02592567540705204
aF0.05182991549372673
aF-0.0038444953970611095
aF-0.04066682979464531
aF0.0062456936575472355
aF0.14695797860622406
aF0.05110486224293709
aF0.06443334370851517
aF0.11477326601743698
aF-0.04921261966228485
aF-0.057913534343242645
aF-0.08567925542593002
aF0.05009344220161438
aF0.06345955282449722
aF0.018450798466801643
aF0.017765885218977928
aF0.120986208319664
aF-0.01141672395169735
aF0.07432987540960312
aF-0.009409132413566113
aF0.08759338408708572
aF0.04952775314450264
aF0.03226915001869202
aF-0.13291864097118378
aF0.022025853395462036
aF0.084794782102108
aF-0.15031661093235016
aF-0.041777923703193665
aF0.08402355015277863
aF-0.07321197539567947
aF-0.2263769507408142
aF0.0018537137657403946
aF0.08186675608158112
aF-0.04484020918607712
aF-0.06260919570922852
aF-0.028854023665189743
aF-0.08377402275800705
aF0.020086966454982758
aF-0.04168792441487312
aF0.09796098619699478
aF0.019303614273667336
aF-0.03767257556319237
aF-0.020673617720603943
aF-0.003380080685019493
aF0.06668361276388168
aF-0.05714140087366104
aF-0.05101306736469269
aF0.09148897230625153
aF-0.02296837419271469
aF-0.014580367133021355
aF0.056881409138441086
aF0.3640846908092499
aF-0.014391875825822353
aF-0.10610709339380264
aF0.048442255705595016
aF-0.040430545806884766
aF0.12510548532009125
aF-0.04448678717017174
aF-0.10774096846580505
aF-0.009029967710375786
aF0.13854451477527618
aF-0.05502566695213318
aF-0.1240728422999382
aF-0.0716918334364891
aF-0.17660965025424957
aF-0.06710930913686752
aF-0.13145621120929718
aF0.0557294599711895
aF0.11305826157331467
aF0.018603218719363213
aF0.038727615028619766
aF0.07120790332555771
aF-0.037373874336481094
aF-0.1772661954164505
aF-0.05447611212730408
aF0.167454794049263
aF0.11894702166318893
aF0.0806865394115448
aF-0.016519905999302864
aF-0.0460684634745121
aF0.04562341049313545
aF-0.011023630388081074
aa(lp14
F0.08447476476430893
aF-0.09242264926433563
aF-0.10961459577083588
aF0.009255725890398026
aF0.04633975401520729
aF0.027403099462389946
aF0.06312339007854462
aF-0.008521469309926033
aF0.15410563349723816
aF0.04417493939399719
aF-0.004537038505077362
aF0.0738249123096466
aF0.00744048785418272
aF0.006574607919901609
aF-0.13527420163154602
aF-0.09732209891080856
aF-0.048538632690906525
aF-0.083229660987854
aF-0.0017268303781747818
aF-0.1636248379945755
aF-0.11428028345108032
aF0.08547931909561157
aF0.06938973069190979
aF0.09110957384109497
aF-0.0008866246207617223
aF-0.18639028072357178
aF-0.2521359622478485
aF0.03921043872833252
aF-0.13366901874542236
aF0.06191568821668625
aF-0.049219172447919846
aF-0.006149454973638058
aF0.15869781374931335
aF0.023971427232027054
aF0.013303611427545547
aF0.05806677043437958
aF-0.005947445519268513
aF-0.12698468565940857
aF-0.0738552063703537
aF0.13488084077835083
aF0.028774229809641838
aF-0.04083433374762535
aF-0.05475243926048279
aF0.0857757031917572
aF-0.0745055228471756
aF0.11028420925140381
aF-0.014336812309920788
aF0.01996537297964096
aF-0.09654656797647476
aF-0.25511854887008667
aF-0.0026409178972244263
aF0.042880214750766754
aF-0.03089715912938118
aF-0.032996952533721924
aF0.0027650429401546717
aF-0.006615322083234787
aF-0.10485844314098358
aF-0.12913638353347778
aF-0.057679977267980576
aF0.0922219306230545
aF0.03646794334053993
aF0.0990644097328186
aF0.07576704770326614
aF-0.1370934396982193
aF-0.19674280285835266
aF0.13784755766391754
aF0.09772926568984985
aF-0.04886201396584511
aF-0.06512802094221115
aF0.051251597702503204
aF-0.03721284121274948
aF-0.026185927912592888
aF0.003692438593134284
aF0.01926903985440731
aF0.04332958161830902
aF-0.08701776713132858
aF0.013647045940160751
aF-0.049777768552303314
aF-0.02453310787677765
aF-0.052303243428468704
aF0.06544939428567886
aF0.03266611695289612
aF0.003158708568662405
aF-0.16691850125789642
aF0.05921301245689392
aF0.009252011775970459
aF0.03576118126511574
aF-0.02019147016108036
aF-0.1164732426404953
aF0.10388427972793579
aF-0.05205196887254715
aF0.004010027274489403
aF-0.028540559113025665
aF-0.15119369328022003
aF-0.09669148921966553
aF0.0001708354684524238
aF0.05555451661348343
aF-0.01987420581281185
aF-0.02654079534113407
aF-0.1202068105340004
aF-0.05226552113890648
aF-0.10978372395038605
aF0.07406455278396606
aF-0.039758216589689255
aF0.008305433206260204
aF-0.029143638908863068
aF0.02753644622862339
aF-0.11846895515918732
aF0.004117578733712435
aF-0.022639555856585503
aF-0.3129422068595886
aF0.040013618767261505
aF0.14999830722808838
aF0.06640108674764633
aF0.025026557967066765
aF-0.02562660351395607
aF-0.07388562709093094
aF0.096286341547966
aF0.1415138691663742
aF9.538799349684268e-05
aF-0.036953624337911606
aF-0.04797406867146492
aF0.07804814726114273
aF-0.05421144515275955
aF0.047949519008398056
aF0.13478811085224152
aF0.11089862138032913
aF0.03396686539053917
aa(lp15
F-0.06816210597753525
aF-0.026561563834547997
aF0.014175371266901493
aF0.047088805586099625
aF-0.09242189675569534
aF-0.04379305988550186
aF-0.03481992334127426
aF-0.18186384439468384
aF0.10601243376731873
aF0.056223560124635696
aF0.1629469245672226
aF0.08180546015501022
aF0.16764703392982483
aF-0.028108755126595497
aF0.05024081468582153
aF0.007074134889990091
aF0.027922069653868675
aF0.02913387306034565
aF-0.01047713216394186
aF-0.045267168432474136
aF0.08683031797409058
aF-0.05332089588046074
aF0.12319902330636978
aF-0.036989957094192505
aF-0.054072603583335876
aF0.027033161371946335
aF0.05814085155725479
aF-0.03684438765048981
aF0.1306077092885971
aF-0.06768321245908737
aF-0.0465719997882843
aF0.036323219537734985
aF0.11027904599905014
aF0.04777297005057335
aF0.041838083416223526
aF-0.009463352151215076
aF-0.2275492548942566
aF0.20419001579284668
aF0.03337288647890091
aF-0.1368321031332016
aF-0.07753469794988632
aF-0.0816139355301857
aF-0.0582239106297493
aF0.007982701063156128
aF0.092190220952034
aF0.0007512560114264488
aF0.09073721617460251
aF-0.14897392690181732
aF0.05876974016427994
aF0.16407525539398193
aF-0.01408858597278595
aF-0.01913771592080593
aF0.04973071813583374
aF-0.06324440985918045
aF0.05451076850295067
aF-0.01582452282309532
aF-0.05334624648094177
aF0.0748123824596405
aF-0.025173556059598923
aF0.05045963451266289
aF0.12237098813056946
aF-0.06653852760791779
aF-0.05190010368824005
aF0.1495707780122757
aF-0.0474911667406559
aF0.2638421356678009
aF-0.06955592334270477
aF0.083134725689888
aF0.11547652631998062
aF-0.06701993197202682
aF0.0821193978190422
aF-0.0982549712061882
aF0.11391009390354156
aF0.015363412909209728
aF-0.010581951588392258
aF0.0865217074751854
aF0.15636242926120758
aF-0.06262263655662537
aF0.027560636401176453
aF0.19237424433231354
aF-0.03001396358013153
aF0.031922683119773865
aF0.020617343485355377
aF0.019855372607707977
aF0.08326797932386398
aF-0.07972730696201324
aF-0.1137293130159378
aF0.033665336668491364
aF0.04334251955151558
aF-0.06360001116991043
aF-0.08313354104757309
aF0.09963816404342651
aF-0.04052552953362465
aF-0.16714735329151154
aF0.13885876536369324
aF0.036245591938495636
aF-0.05248991772532463
aF0.0513601079583168
aF0.07782670110464096
aF-0.07772210985422134
aF-0.010684695094823837
aF-0.11177664250135422
aF-0.05059407651424408
aF0.06459709256887436
aF0.08197738975286484
aF0.06888827681541443
aF-0.1356986165046692
aF0.014893471263349056
aF-0.16667164862155914
aF-0.05636468902230263
aF0.02984781377017498
aF-0.025880614295601845
aF0.00842160452157259
aF0.1462736427783966
aF0.09235396981239319
aF0.07532098144292831
aF-0.09336432814598083
aF-0.08699268847703934
aF-0.0622519925236702
aF-0.07536448538303375
aF-0.09139751642942429
aF0.02430296130478382
aF-0.050685856491327286
aF-0.03809110447764397
aF0.15744920074939728
aF-0.039917655289173126
aF-0.0963314101099968
aF0.07316404581069946
aa(lp16
F-0.04854743555188179
aF-0.031193604692816734
aF0.11085229367017746
aF-0.08686769753694534
aF0.26081418991088867
aF0.03759890794754028
aF0.018337829038500786
aF-0.08287028968334198
aF-0.009680163115262985
aF0.07950764894485474
aF-0.13238322734832764
aF-0.16112859547138214
aF0.05045772343873978
aF0.010808827355504036
aF-0.1429307758808136
aF0.07468389719724655
aF0.09514065086841583
aF0.06535563617944717
aF0.15353983640670776
aF-0.12350304424762726
aF-0.032891299575567245
aF0.0237773098051548
aF0.044658929109573364
aF0.003280679229646921
aF0.03562093526124954
aF0.0707491934299469
aF-0.02230023220181465
aF0.02381674386560917
aF-0.03155266493558884
aF0.07488114386796951
aF0.007083966862410307
aF0.06444467604160309
aF0.09553078562021255
aF0.012346534989774227
aF0.10913830995559692
aF0.06015713885426521
aF0.14236561954021454
aF-0.14908243715763092
aF-0.04379257187247276
aF0.03581445291638374
aF0.06869171559810638
aF0.02461318112909794
aF-0.034038182348012924
aF0.002689698012545705
aF-0.013669942505657673
aF0.051990944892168045
aF0.003929336089640856
aF-0.01262785866856575
aF-0.021069763228297234
aF-0.12648026645183563
aF0.18626898527145386
aF-0.001454135519452393
aF-0.050652116537094116
aF-0.05250100418925285
aF0.017752593383193016
aF0.007909655570983887
aF1.5127434380701743e-05
aF-0.08381318300962448
aF0.07353340834379196
aF0.07209915667772293
aF0.07556671649217606
aF0.06759856641292572
aF0.10251494497060776
aF0.07531099766492844
aF-0.0192448478192091
aF0.11272526532411575
aF0.07540994137525558
aF0.04309641942381859
aF0.03988824412226677
aF0.04814457148313522
aF-0.010157853364944458
aF0.08354923129081726
aF0.0762215331196785
aF-0.0058398619294166565
aF0.009013786911964417
aF-0.004894405137747526
aF0.08350380510091782
aF0.0799114778637886
aF-0.03541909530758858
aF0.028273973613977432
aF0.12526573240756989
aF-0.06109907850623131
aF0.0652618482708931
aF0.00030882805003784597
aF0.0947602242231369
aF0.08531942963600159
aF-0.18502292037010193
aF-0.15739385783672333
aF-0.12033536285161972
aF0.07278386503458023
aF-0.07489505410194397
aF0.027507532387971878
aF0.004085432272404432
aF0.11710897833108902
aF-0.01598464325070381
aF-0.08766403794288635
aF-0.02254469133913517
aF0.16297340393066406
aF-0.20658797025680542
aF0.12517866492271423
aF-0.026073327288031578
aF-0.054582901298999786
aF0.18224650621414185
aF0.03611547127366066
aF-0.1477717161178589
aF-0.12442848086357117
aF0.14966346323490143
aF-0.03397643193602562
aF-0.03938212990760803
aF-0.11056073755025864
aF-0.036735136061906815
aF-0.02237667329609394
aF-0.13750605285167694
aF0.0956524908542633
aF-0.10636723786592484
aF-0.13283458352088928
aF0.016778796911239624
aF0.055982496589422226
aF-0.20995073020458221
aF-0.029012510553002357
aF-0.15401345491409302
aF-0.05427119508385658
aF0.06548656523227692
aF0.0720672532916069
aF-0.15480923652648926
aF0.002315227873623371
aF-0.02941161021590233
aF-0.022746635600924492
aa(lp17
F0.04098815098404884
aF0.06756357103586197
aF-0.08227907866239548
aF0.1202150508761406
aF-0.16183997690677643
aF0.09901553392410278
aF0.04342629387974739
aF-0.14623461663722992
aF-0.05973665043711662
aF-0.02958889678120613
aF0.018286043778061867
aF-0.05020977556705475
aF0.005913210567086935
aF-0.02437600865960121
aF-0.18101587891578674
aF0.012679742649197578
aF0.06443149596452713
aF0.024362877011299133
aF0.2134847491979599
aF-0.039590023458004
aF0.07138978689908981
aF0.08529800921678543
aF-0.05616239458322525
aF-0.03342144563794136
aF0.07181002199649811
aF0.07143542915582657
aF0.14039404690265656
aF-0.017607461661100388
aF0.06650082021951675
aF-0.030307430773973465
aF0.07554589211940765
aF0.17469024658203125
aF-0.09422808885574341
aF0.10591640323400497
aF0.15912333130836487
aF-0.009973762556910515
aF0.08650209754705429
aF-0.044130709022283554
aF0.011424880474805832
aF0.11892926692962646
aF0.04421422630548477
aF0.04663419350981712
aF0.20105522871017456
aF0.0033507230691611767
aF-0.041222669184207916
aF0.0081040533259511
aF-0.12839382886886597
aF0.030651215463876724
aF-0.020340729504823685
aF-0.0748748928308487
aF-0.09091994166374207
aF-0.09816492348909378
aF0.05881032720208168
aF-0.024946078658103943
aF-0.10959497094154358
aF0.02029784768819809
aF0.09086068719625473
aF-0.005533821880817413
aF0.07643134146928787
aF0.09030091017484665
aF-0.07914021611213684
aF0.0453769713640213
aF0.05154816806316376
aF-0.01874721795320511
aF-0.0509427934885025
aF-0.13348530232906342
aF-0.10412274301052094
aF-0.16880826652050018
aF-0.22350841760635376
aF-0.00814903900027275
aF0.04956178367137909
aF-0.07470338046550751
aF0.12946757674217224
aF0.07569495588541031
aF-0.004087680950760841
aF-0.045620765537023544
aF0.08912671357393265
aF0.20344099402427673
aF-0.0714908167719841
aF0.025057610124349594
aF0.06429390609264374
aF0.021245790645480156
aF0.11004304140806198
aF0.15299633145332336
aF-0.007669395301491022
aF0.13157783448696136
aF-0.13807721436023712
aF-0.030411750078201294
aF0.0021934190299361944
aF0.05426489934325218
aF0.04767198860645294
aF0.13993008434772491
aF-0.005825917236506939
aF0.0964253693819046
aF0.19960401952266693
aF-0.0192688200622797
aF0.061156485229730606
aF0.04492226243019104
aF-0.06161090359091759
aF-0.0003056682471651584
aF0.04233309254050255
aF-0.04730033874511719
aF0.05362940952181816
aF-0.0057027884759008884
aF0.054865431040525436
aF-0.22156131267547607
aF0.018343590199947357
aF0.06992650777101517
aF-0.1006326675415039
aF-0.019091926515102386
aF-0.12709923088550568
aF-0.023372583091259003
aF0.057100437581539154
aF-0.06118294969201088
aF0.07296472042798996
aF-0.09387435764074326
aF-0.021638549864292145
aF-0.03278321772813797
aF-0.013452118262648582
aF-0.02547110803425312
aF0.09912595897912979
aF0.1795666664838791
aF0.008524146862328053
aF0.02317938767373562
aF0.05151450261473656
aF0.03376154229044914
aF0.014847321435809135
aF0.06723104417324066
aa(lp18
F-0.13139162957668304
aF0.029431872069835663
aF-0.06723158061504364
aF-0.08525209128856659
aF-0.0026928370352834463
aF-0.04578179121017456
aF0.14009010791778564
aF0.003749345662072301
aF0.0035718095023185015
aF0.025021115317940712
aF0.09936143457889557
aF-0.10481242835521698
aF0.004610907286405563
aF-0.022719476372003555
aF-0.09101522713899612
aF0.0700688362121582
aF0.03888654708862305
aF-0.16086284816265106
aF0.06562423706054688
aF0.16159938275814056
aF0.00029782523051835597
aF-0.011665956117212772
aF-0.11144403368234634
aF0.05959564447402954
aF-0.00333334319293499
aF-0.1075059026479721
aF-0.08523524552583694
aF-0.08831889927387238
aF0.030797993764281273
aF0.009026378393173218
aF-0.05556516721844673
aF-0.01506009604781866
aF0.09968070685863495
aF0.011852599680423737
aF0.33550530672073364
aF0.03935527428984642
aF0.0026526651345193386
aF-0.00766700878739357
aF-0.04129081591963768
aF0.18872065842151642
aF0.011452038772404194
aF-0.11751990765333176
aF0.0868343934416771
aF0.0015113924164324999
aF-0.06345116347074509
aF-0.023956231772899628
aF0.040949709713459015
aF0.0023687295615673065
aF-0.008592826314270496
aF0.08300722390413284
aF0.07502438873052597
aF-0.1036955788731575
aF-0.07314173877239227
aF-0.08920273184776306
aF0.0586949847638607
aF0.06912226229906082
aF-0.07445960491895676
aF0.041721682995557785
aF0.09185973554849625
aF0.0870179757475853
aF0.029374849051237106
aF0.06864271312952042
aF0.008280682377517223
aF-0.002669193781912327
aF0.33674049377441406
aF-0.053370170295238495
aF0.01701662875711918
aF0.0017188157653436065
aF-0.11737851798534393
aF0.06745463609695435
aF-0.012171770446002483
aF-0.04280523583292961
aF-0.03368886560201645
aF-0.08821715414524078
aF0.1104976236820221
aF0.07652300596237183
aF0.14696718752384186
aF-0.05903075262904167
aF-0.1382887065410614
aF0.09929852187633514
aF0.06466731429100037
aF0.056092020124197006
aF-0.06592130661010742
aF-0.10897964239120483
aF0.08238805830478668
aF0.15160153806209564
aF0.09714039415121078
aF0.02732815407216549
aF-0.05677594989538193
aF0.0861184224486351
aF0.004983250051736832
aF0.130143940448761
aF-0.06286391615867615
aF0.042347777634859085
aF-0.08384590595960617
aF-0.03736751526594162
aF-0.032920319586992264
aF-0.05088371783494949
aF0.12035965919494629
aF0.05377141758799553
aF-0.004743216559290886
aF0.05045255273580551
aF-0.1316853016614914
aF0.047811951488256454
aF-0.0545705109834671
aF-0.10714312642812729
aF-0.0367167629301548
aF0.031504206359386444
aF0.16954420506954193
aF0.032626669853925705
aF0.214157834649086
aF-0.10688602924346924
aF-0.0663423165678978
aF0.07384522259235382
aF0.00721507053822279
aF0.07652049511671066
aF-0.011951331049203873
aF0.04882025346159935
aF0.042318880558013916
aF-0.006674617994576693
aF-0.1407204121351242
aF0.005369867198169231
aF0.039948802441358566
aF0.05843976140022278
aF-0.141764834523201
aF0.061792198568582535
aF0.07234948873519897
aF0.024950403720140457
aa(lp19
F-0.02294772118330002
aF0.03536476939916611
aF0.16043177247047424
aF-0.036396272480487823
aF0.052047111093997955
aF-0.05883955582976341
aF0.07659456878900528
aF-0.025024035945534706
aF0.04218537360429764
aF-0.047725845128297806
aF-0.07124871015548706
aF-0.10623402148485184
aF-0.023218993097543716
aF-0.051782138645648956
aF0.06900805979967117
aF0.11012881249189377
aF0.10004701465368271
aF-0.10636959969997406
aF0.03339356184005737
aF-0.05202864110469818
aF-0.05441993474960327
aF-0.05426771193742752
aF0.03575165197253227
aF0.12093034386634827
aF0.051487844437360764
aF0.009885902516543865
aF-0.14356783032417297
aF-0.044030606746673584
aF-0.08835644274950027
aF-0.029430851340293884
aF0.15377454459667206
aF-0.04880087450146675
aF0.10094736516475677
aF-0.017856700345873833
aF-0.09158667176961899
aF0.11402358114719391
aF0.06800363212823868
aF-0.034867748618125916
aF-0.1033116802573204
aF0.0965024009346962
aF0.07707914710044861
aF-0.029340267181396484
aF-0.042467739433050156
aF-0.009614012204110622
aF-0.07322186231613159
aF-0.004225496202707291
aF0.15407411754131317
aF-0.0573372058570385
aF0.03325594589114189
aF0.03696466237306595
aF-0.08436013758182526
aF0.07076580822467804
aF-0.03953331708908081
aF-0.06854840368032455
aF-0.08138114959001541
aF0.05830235406756401
aF0.05069483444094658
aF-0.04973796755075455
aF0.08174195885658264
aF-0.039635103195905685
aF0.09341319650411606
aF0.03260201960802078
aF-0.06465592980384827
aF-0.01020786166191101
aF-0.1834188997745514
aF0.13724462687969208
aF0.09868603944778442
aF0.16335566341876984
aF0.22533714771270752
aF0.06243761256337166
aF0.03810137137770653
aF-0.05086669698357582
aF0.07524034380912781
aF0.027639830484986305
aF-0.08519339561462402
aF0.03708659112453461
aF-0.12805995345115662
aF-0.025982413440942764
aF0.05562952905893326
aF0.03008211962878704
aF0.04874127730727196
aF0.08272698521614075
aF-0.07795976847410202
aF-0.1546187698841095
aF0.06414870172739029
aF-0.13548092544078827
aF-0.18396154046058655
aF0.13819491863250732
aF-0.07241570204496384
aF-0.048238180577754974
aF-0.0780261978507042
aF-0.023915400728583336
aF-0.0106746144592762
aF0.03791285306215286
aF0.18783986568450928
aF0.05967675521969795
aF0.042046189308166504
aF-0.05571113899350166
aF0.035949572920799255
aF0.09666711091995239
aF-0.09907062351703644
aF-0.22541294991970062
aF0.09817887842655182
aF0.15286856889724731
aF0.14960205554962158
aF0.07739826291799545
aF-0.029764894396066666
aF0.13466858863830566
aF-0.06822191178798676
aF-0.027150284498929977
aF-0.06328234821557999
aF-0.08849725872278214
aF-0.08730374276638031
aF0.046135108917951584
aF0.15097205340862274
aF-0.026233306154608727
aF0.12262369692325592
aF-0.06977188587188721
aF-0.02858644723892212
aF-0.12845973670482635
aF-0.055593639612197876
aF-0.13365714251995087
aF0.04202976077795029
aF-0.0254200492054224
aF0.14417825639247894
aF-0.06612794101238251
aF-0.07489767670631409
aF0.05083990469574928
aa(lp20
F-0.026179350912570953
aF-0.09918741881847382
aF-0.18376228213310242
aF0.11140336841344833
aF-0.036678433418273926
aF0.09624004364013672
aF-0.037949033081531525
aF0.02897406928241253
aF-0.04553856700658798
aF0.014545263722538948
aF-0.06787290424108505
aF0.042221132665872574
aF0.12380163371562958
aF0.01213326770812273
aF-0.16735140979290009
aF-0.034313227981328964
aF0.10254381597042084
aF0.18273596465587616
aF0.03809233009815216
aF-0.15196673572063446
aF-0.004859583452343941
aF0.07466290146112442
aF0.15387530624866486
aF0.019163424149155617
aF0.055273693054914474
aF0.11920205503702164
aF0.20659798383712769
aF-0.1664758324623108
aF0.10111606866121292
aF-0.040197111666202545
aF0.08589489012956619
aF0.0559261292219162
aF-0.006391474977135658
aF-0.04066482558846474
aF0.225099578499794
aF-0.0009586362284608185
aF0.10365435481071472
aF0.05851801484823227
aF-0.052026428282260895
aF0.05448681488633156
aF0.00880084466189146
aF-0.16620482504367828
aF0.0461881086230278
aF0.1463189572095871
aF0.006524962373077869
aF-0.02540617436170578
aF0.062428947538137436
aF0.10210228711366653
aF0.0013184593990445137
aF-0.0421031229197979
aF-0.09279442578554153
aF-0.07110448181629181
aF0.016711749136447906
aF-0.005664306692779064
aF-0.05244655907154083
aF-0.03378868103027344
aF0.061760250478982925
aF-0.022294800728559494
aF0.17009353637695312
aF0.15060526132583618
aF-0.08773462474346161
aF0.13990947604179382
aF-0.0468999482691288
aF0.04779386147856712
aF0.06978926807641983
aF0.03405870124697685
aF0.06350457668304443
aF-0.2307208776473999
aF-0.1528203934431076
aF-0.09818844497203827
aF0.023166678845882416
aF0.0646500512957573
aF0.10504025965929031
aF-0.00894902367144823
aF-0.07459928840398788
aF0.030441202223300934
aF0.016264760866761208
aF0.07383663952350616
aF-0.03138784319162369
aF-0.018659768626093864
aF0.08532700687646866
aF-0.12087541073560715
aF0.02579299360513687
aF0.006359402555972338
aF0.0012870737118646502
aF0.13454726338386536
aF-0.024654215201735497
aF-0.09586550295352936
aF0.04782954230904579
aF0.028451791033148766
aF-0.05848664045333862
aF0.015592038631439209
aF0.034622445702552795
aF0.026030834764242172
aF0.12636953592300415
aF-0.032793350517749786
aF0.011840060353279114
aF0.25048184394836426
aF-0.09328102320432663
aF0.10948482155799866
aF-0.08317989856004715
aF-0.04979579523205757
aF-0.06377027928829193
aF-0.04676996171474457
aF0.04309200495481491
aF0.0393298976123333
aF0.17046695947647095
aF-0.02046147547662258
aF0.08638046681880951
aF-0.015887202695012093
aF0.1219433918595314
aF0.006555566564202309
aF0.1080411896109581
aF0.06814906001091003
aF-0.030799625441432
aF0.0640026405453682
aF-0.0567721426486969
aF-0.011758252047002316
aF-0.04152096062898636
aF0.03182843327522278
aF0.046717140823602676
aF0.015039609745144844
aF0.09363331645727158
aF0.09246010333299637
aF-0.1055285632610321
aF0.08066020905971527
aF0.03737771138548851
aF0.019639940932393074
aa(lp21
F-0.007651308551430702
aF0.06168390437960625
aF0.053998276591300964
aF-0.09898897260427475
aF-0.016144786030054092
aF-0.16541986167430878
aF-0.005072032567113638
aF-0.08123978972434998
aF0.0835261195898056
aF-0.004463504999876022
aF0.07078776508569717
aF0.01097444910556078
aF-0.013858562335371971
aF-0.05156522989273071
aF-0.016306329518556595
aF0.05534633994102478
aF-0.10708089172840118
aF0.16207513213157654
aF0.07933394610881805
aF0.05881967395544052
aF0.09007126837968826
aF0.043426044285297394
aF0.2013910412788391
aF-0.08774510771036148
aF0.03651599586009979
aF-0.007762814871966839
aF0.0033685911912471056
aF0.11262798309326172
aF0.07994680851697922
aF-0.08112336695194244
aF0.028302069753408432
aF-0.05269436538219452
aF-0.12768593430519104
aF0.02777724526822567
aF0.009681791998445988
aF0.01736823469400406
aF-0.14860279858112335
aF-0.032478947192430496
aF-0.013399951159954071
aF0.06385639309883118
aF-0.06573182344436646
aF0.081306092441082
aF0.304810106754303
aF0.01977720484137535
aF0.07460357993841171
aF-0.014589008875191212
aF-0.1266138106584549
aF0.06446043401956558
aF0.055374015122652054
aF0.12498611211776733
aF-0.07714468985795975
aF-0.016853727400302887
aF-0.06942304223775864
aF0.008337553590536118
aF0.10323472321033478
aF0.013658237643539906
aF-0.01378825306892395
aF0.04235989227890968
aF-0.022409165278077126
aF0.11002755910158157
aF0.06624724715948105
aF-0.17966844141483307
aF0.1135360598564148
aF0.16449184715747833
aF0.15852414071559906
aF0.06980394572019577
aF-0.1108454018831253
aF0.07708757370710373
aF0.05783407762646675
aF0.00811088178306818
aF0.10633544623851776
aF-0.017499448731541634
aF0.13584598898887634
aF-0.14260323345661163
aF-0.08136137574911118
aF0.0258359145373106
aF-0.1137189120054245
aF-0.04562122002243996
aF0.03777027875185013
aF0.02492145262658596
aF0.027098292484879494
aF-0.13748082518577576
aF-0.14250870048999786
aF0.04719884321093559
aF-0.0033354666084051132
aF0.11119039356708527
aF0.006601820234209299
aF0.154032364487648
aF-0.018752621486783028
aF-0.17013601958751678
aF-0.028199901804327965
aF-0.1224699467420578
aF-0.04493012651801109
aF-0.04755859822034836
aF0.007558033801615238
aF-0.0027623644564300776
aF-0.005315853748470545
aF0.1453460454940796
aF0.0024439545813947916
aF-0.0472102127969265
aF0.09110340476036072
aF0.13394472002983093
aF0.14491423964500427
aF-0.01948441192507744
aF0.016343560069799423
aF-0.1361290067434311
aF0.019573397934436798
aF-0.15543583035469055
aF-0.049272388219833374
aF-0.05598941817879677
aF-0.04786279797554016
aF0.0795431137084961
aF0.026552261784672737
aF0.02366558648645878
aF-0.11420758068561554
aF0.12239139527082443
aF-0.030783098191022873
aF0.04493093490600586
aF0.13827554881572723
aF0.04667145386338234
aF-0.038920819759368896
aF0.10963333398103714
aF0.08780030161142349
aF0.0015517892315983772
aF0.02807558700442314
aF-0.023344753310084343
aF0.16895009577274323
aF0.01402268186211586
aa(lp22
F-0.055817652493715286
aF0.04393944516777992
aF0.11717552691698074
aF-0.19331806898117065
aF-0.07795962691307068
aF-0.1319102793931961
aF-0.038363102823495865
aF-0.0630970224738121
aF-0.14400678873062134
aF0.14198045432567596
aF0.08312700688838959
aF0.011865152977406979
aF0.0032328099478036165
aF0.0317610464990139
aF-0.058615125715732574
aF0.14586777985095978
aF0.06880012899637222
aF0.031393181532621384
aF0.18096810579299927
aF-0.10995616018772125
aF0.04298824071884155
aF-0.0003912680840585381
aF0.25899821519851685
aF-0.04263478145003319
aF-0.014294801279902458
aF0.02409820817410946
aF0.14371751248836517
aF0.039961524307727814
aF-0.09134914726018906
aF0.09099795669317245
aF0.1381632685661316
aF0.08370275795459747
aF0.11864759027957916
aF-0.005182919092476368
aF0.0680631622672081
aF0.05395364388823509
aF-0.039036888629198074
aF0.04634729027748108
aF-0.06411746889352798
aF0.09743259102106094
aF0.027323994785547256
aF-0.14760209619998932
aF0.1636851578950882
aF-0.004411987029016018
aF-0.06816430389881134
aF0.02898547612130642
aF0.05285174399614334
aF-0.06094181165099144
aF-0.04992549866437912
aF-0.0858280137181282
aF0.004085193388164043
aF0.03664074465632439
aF0.04114816337823868
aF-0.03579193353652954
aF-0.10933768004179001
aF0.1027202233672142
aF0.052200961858034134
aF-0.1479637324810028
aF0.06313832849264145
aF0.0649489089846611
aF0.028050608932971954
aF-0.1687244027853012
aF0.05661952868103981
aF0.05018755421042442
aF0.06613340973854065
aF0.09893848747015
aF-0.0044385395012795925
aF0.03610866144299507
aF0.1459936797618866
aF0.03167710825800896
aF-0.02014220878481865
aF0.08254507184028625
aF-0.10553991049528122
aF-0.05225507169961929
aF-0.09641383588314056
aF0.030552996322512627
aF0.018147088587284088
aF0.09301428496837616
aF-0.051144812256097794
aF0.09594934433698654
aF-0.03474411368370056
aF-0.07796962559223175
aF-0.14878538250923157
aF-0.03828727453947067
aF-0.021263979375362396
aF0.1807001680135727
aF0.056564830243587494
aF-0.04445650428533554
aF0.004565521143376827
aF-0.03272892162203789
aF-0.20053456723690033
aF0.08846349269151688
aF-0.058132320642471313
aF-0.008483470417559147
aF0.12115176022052765
aF0.08881469070911407
aF-0.12124697118997574
aF0.18066029250621796
aF-0.09117785841226578
aF0.017897823825478554
aF0.00503233028575778
aF-0.06693919003009796
aF0.1313486099243164
aF0.0015416414244100451
aF0.04815700650215149
aF-0.10251437872648239
aF0.04470456764101982
aF0.004994124639779329
aF0.0042824530974030495
aF0.010648096911609173
aF0.0012912489473819733
aF-0.04213358089327812
aF-0.1203128844499588
aF-0.11801798641681671
aF0.10179310292005539
aF-0.026809189468622208
aF0.00043799722334370017
aF0.04326825216412544
aF-0.10299704223871231
aF0.004371225833892822
aF-0.019568977877497673
aF0.05077625811100006
aF0.18099865317344666
aF0.12217677384614944
aF0.06350741535425186
aF-0.019870566204190254
aF0.10545890778303146
aF0.049954045563936234
aa(lp23
F-0.03942212462425232
aF-0.0807904377579689
aF-0.0815102607011795
aF-0.14008156955242157
aF-0.07235120981931686
aF-0.02109934389591217
aF-0.16155719757080078
aF-0.011657539755105972
aF-0.09228541702032089
aF0.004531432408839464
aF-0.06756389141082764
aF0.05375417321920395
aF-0.06365236639976501
aF0.08745456486940384
aF-0.05016675218939781
aF-0.10410463809967041
aF-0.02653169073164463
aF0.06724890321493149
aF0.12321393936872482
aF-0.0815955102443695
aF-0.029793668538331985
aF-0.009678225964307785
aF-0.014894034713506699
aF-0.07131227850914001
aF0.19490928947925568
aF0.1015927791595459
aF0.0013686264865100384
aF-0.011303054168820381
aF0.10158155113458633
aF0.11772790551185608
aF0.09028735011816025
aF0.04520977661013603
aF-0.008227609097957611
aF-0.056090857833623886
aF0.0023574877995997667
aF0.05072176083922386
aF0.1387779414653778
aF-0.02788211964070797
aF0.011146175675094128
aF0.09990715980529785
aF0.08968772739171982
aF0.09023253619670868
aF-0.01515430212020874
aF0.010176478885114193
aF0.031468067318201065
aF0.06278445571660995
aF0.04571095108985901
aF0.11763633042573929
aF-0.026222970336675644
aF-0.07203162461519241
aF-0.0055688428692519665
aF-0.051456518471241
aF0.05039342865347862
aF-0.08007767796516418
aF-0.024411926046013832
aF-0.06805398315191269
aF-0.13178446888923645
aF-0.15108627080917358
aF0.09779804944992065
aF0.060999054461717606
aF-0.04127969965338707
aF0.002622216008603573
aF0.08842721581459045
aF-0.0502840057015419
aF0.124574214220047
aF-0.03073566034436226
aF0.007665817625820637
aF-0.2283816635608673
aF-0.103151835501194
aF0.060619182884693146
aF-0.038834504783153534
aF0.08745559304952621
aF-0.10004251450300217
aF-0.02284712716937065
aF-0.08162307739257812
aF-0.13211137056350708
aF0.05826148763298988
aF0.11791662871837616
aF0.0684104859828949
aF-0.014259678311645985
aF0.0699060931801796
aF-0.04845558851957321
aF0.011513955891132355
aF-0.17740944027900696
aF-0.06256919354200363
aF0.08804555237293243
aF0.049038782715797424
aF-0.16813325881958008
aF0.02128223143517971
aF0.03460456803441048
aF-0.16088539361953735
aF0.09319047629833221
aF0.015825390815734863
aF0.17000387609004974
aF-0.022561047226190567
aF0.05895822495222092
aF-0.10299248993396759
aF-0.04390630125999451
aF0.07392416149377823
aF-0.005348914302885532
aF-0.05168568715453148
aF-0.10559260100126266
aF0.06785015016794205
aF0.013608123175799847
aF-0.03110097534954548
aF-0.15188860893249512
aF0.19175811111927032
aF0.01937607116997242
aF0.12757143378257751
aF-0.0745217502117157
aF-0.13478697836399078
aF0.15594805777072906
aF0.007943372242152691
aF-0.047150883823633194
aF-0.0967329815030098
aF0.11194927990436554
aF-0.02100948616862297
aF-0.057547010481357574
aF-0.10280094295740128
aF0.20222117006778717
aF0.06368080526590347
aF-0.013774577528238297
aF0.06458165496587753
aF-0.1421680599451065
aF0.10105637460947037
aF-0.018396222963929176
aF0.18626832962036133
aF-0.003670834004878998
aa(lp24
F-0.018277175724506378
aF0.029377594590187073
aF0.23522880673408508
aF-0.006669653579592705
aF0.09680377691984177
aF-0.03939700871706009
aF-0.05917663127183914
aF0.16254279017448425
aF0.014823689125478268
aF-0.0010884101502597332
aF0.021362969651818275
aF0.092202328145504
aF0.030498020350933075
aF-0.01774456351995468
aF-0.0615389421582222
aF0.002142638899385929
aF-0.022091053426265717
aF0.034302160143852234
aF-0.017411233857274055
aF-0.009888256900012493
aF-0.09180986881256104
aF-0.1567748636007309
aF0.044805269688367844
aF0.04244349151849747
aF0.10626158118247986
aF0.0516505092382431
aF-0.13618041574954987
aF-0.09539640694856644
aF-0.17458511888980865
aF-0.015542244538664818
aF-0.05021176114678383
aF-0.10307196527719498
aF0.01741142012178898
aF0.09129709750413895
aF0.07734743505716324
aF-0.03458563610911369
aF0.16482968628406525
aF0.06208903715014458
aF-0.043838538229465485
aF-0.10587984323501587
aF-0.020612798631191254
aF0.022621501237154007
aF-0.14053960144519806
aF-0.009922852739691734
aF0.015407354570925236
aF-0.11819044500589371
aF0.07772878557443619
aF-0.0470968522131443
aF0.09958501905202866
aF0.1079215556383133
aF0.025119317695498466
aF-0.11209811270236969
aF0.08019885420799255
aF0.10572414845228195
aF0.031173262745141983
aF-0.02410431019961834
aF0.06320196390151978
aF-0.075543612241745
aF-0.013659999705851078
aF-0.21577325463294983
aF-0.016709061339497566
aF0.06204298138618469
aF0.0026709572412073612
aF-0.027900872752070427
aF-0.18917089700698853
aF0.02116284891963005
aF0.22332385182380676
aF0.016400646418333054
aF0.02476484142243862
aF-0.08415371179580688
aF0.03327712416648865
aF0.028502175584435463
aF-0.03452722728252411
aF-0.03786599636077881
aF-0.08733196556568146
aF-0.059449587017297745
aF0.03416039049625397
aF-0.022154156118631363
aF0.14890538156032562
aF0.08091012388467789
aF0.0046578156761825085
aF-0.0514109842479229
aF-0.003505820408463478
aF0.09789272397756577
aF-0.04657237231731415
aF-0.070180743932724
aF0.11209088563919067
aF0.06602635234594345
aF-0.06205218285322189
aF0.053681354969739914
aF-0.1686677187681198
aF0.01704270951449871
aF0.12781678140163422
aF0.08628660440444946
aF0.18170270323753357
aF0.06472939252853394
aF0.00011954230285482481
aF0.1480032205581665
aF-0.028529755771160126
aF-0.0030251576099544764
aF-0.09902729839086533
aF0.10749342292547226
aF-0.12216341495513916
aF0.09739480167627335
aF0.032360367476940155
aF0.006203809753060341
aF0.11854900419712067
aF-0.014257685281336308
aF-0.03428305685520172
aF-0.10925362259149551
aF-0.06490703672170639
aF0.001982123591005802
aF-0.017338411882519722
aF0.09095137566328049
aF0.2493797391653061
aF0.08553565293550491
aF0.056352946907281876
aF-0.04753366857767105
aF-0.057155441492795944
aF-0.23767659068107605
aF0.011075113900005817
aF-0.008252575993537903
aF-0.04257770627737045
aF-0.02747577428817749
aF0.15919490158557892
aF-0.002461326541379094
aF0.007600735407322645
aF0.001611414598301053
aa(lp25
F0.10638374835252762
aF-0.12635274231433868
aF0.044584326446056366
aF-0.0907389298081398
aF-0.00744820898398757
aF0.06045851483941078
aF0.12529611587524414
aF0.11956441402435303
aF0.09101226180791855
aF0.12779255211353302
aF-0.08250806480646133
aF-0.14318466186523438
aF-0.008273724466562271
aF-0.0851532369852066
aF-0.06737325340509415
aF-0.10842292755842209
aF0.06342931091785431
aF-0.12798766791820526
aF-0.07558365911245346
aF-0.12272532284259796
aF0.01892285794019699
aF-0.03470110148191452
aF0.12394330650568008
aF0.022541826590895653
aF0.07297327369451523
aF-0.151218444108963
aF0.09212561696767807
aF-0.0005524153239093721
aF-0.07165385037660599
aF0.07058615237474442
aF-0.07857037335634232
aF0.1441079080104828
aF-0.10191133618354797
aF-0.0356409028172493
aF-0.08420108258724213
aF0.07380803674459457
aF0.04695882275700569
aF0.058834008872509
aF0.10658246278762817
aF-0.03679344430565834
aF0.028618887066841125
aF-0.009450136683881283
aF0.056700024753808975
aF0.03223990276455879
aF-0.10492586344480515
aF0.08037596940994263
aF-0.012596304528415203
aF-0.10654032975435257
aF-0.005668414756655693
aF-0.05562084540724754
aF-0.04027280956506729
aF0.10420861095190048
aF-0.07978463917970657
aF0.03847573697566986
aF-0.0643664225935936
aF0.08732049912214279
aF-0.02267199009656906
aF-0.07205791026353836
aF0.018953703343868256
aF0.09270921349525452
aF-0.12785989046096802
aF0.1554075926542282
aF-0.09284935146570206
aF-0.13657382130622864
aF-0.013204499147832394
aF0.15454119443893433
aF0.13675738871097565
aF-0.13556945323944092
aF-0.06450095027685165
aF0.06307144463062286
aF0.0284627266228199
aF0.15744397044181824
aF-0.012107929214835167
aF0.09367576986551285
aF0.11367973685264587
aF0.07943885773420334
aF-0.022963128983974457
aF-0.010538103990256786
aF-0.10991431027650833
aF-0.11968150734901428
aF0.02919797971844673
aF-0.0628281682729721
aF-0.02210434153676033
aF-0.13789696991443634
aF0.11019207537174225
aF0.01655438356101513
aF0.04197859764099121
aF-0.05719355121254921
aF-0.1578894406557083
aF0.03850461170077324
aF-0.04981718957424164
aF-0.020375249907374382
aF-0.06884478777647018
aF-0.015837889164686203
aF0.04160386696457863
aF-0.13161437213420868
aF-0.10693563520908356
aF0.0931537076830864
aF-0.026965012773871422
aF-0.15642496943473816
aF-0.13436253368854523
aF0.10694484412670135
aF-0.10066838562488556
aF-0.0743047446012497
aF-0.11598747223615646
aF-0.07524295896291733
aF-0.14286494255065918
aF0.0523451566696167
aF-0.05560550093650818
aF0.037827298045158386
aF-0.14540989696979523
aF0.13378234207630157
aF0.023789212107658386
aF0.11869676411151886
aF-0.08958423137664795
aF0.15818838775157928
aF-0.045357849448919296
aF-0.05927903577685356
aF0.015071638859808445
aF-0.12000769376754761
aF0.13272404670715332
aF-0.014730443246662617
aF-0.08580072969198227
aF0.0012886911863461137
aF0.054916705936193466
aF-0.022230491042137146
aF-0.024462129920721054
aF-0.08866599202156067
aa(lp26
F-0.11286254972219467
aF-0.06690920889377594
aF0.24086637794971466
aF0.07774685323238373
aF-0.05768299475312233
aF-0.11241764575242996
aF-0.07118114084005356
aF-0.006495126988738775
aF0.024019548669457436
aF-0.09061368554830551
aF0.06921529769897461
aF-0.020358948037028313
aF-0.04194805026054382
aF-0.044433340430259705
aF-0.046920906752347946
aF0.10273582488298416
aF0.04329221323132515
aF0.05646122992038727
aF-0.08276244252920151
aF-0.05878015235066414
aF-0.05904111638665199
aF0.04088066145777702
aF0.06902824342250824
aF-0.04726323485374451
aF0.10183088481426239
aF0.117303766310215
aF0.007620925549417734
aF0.07624037563800812
aF-0.16181959211826324
aF-0.029828308150172234
aF-0.05359182879328728
aF0.044465288519859314
aF0.10051778703927994
aF0.0603393130004406
aF0.03782602399587631
aF0.05908339098095894
aF0.08282503485679626
aF-0.00020523126295302063
aF-0.00426497682929039
aF0.046225037425756454
aF-0.01552338246256113
aF-0.012709960341453552
aF-0.018847374245524406
aF0.053044985979795456
aF-0.04695883393287659
aF0.04841924458742142
aF0.09396382421255112
aF-0.0737762451171875
aF0.060664188116788864
aF0.10552133619785309
aF-0.0580197237432003
aF-0.13723650574684143
aF0.037524495273828506
aF0.09898205101490021
aF-0.021160759031772614
aF0.03500652685761452
aF-0.03591969981789589
aF-0.01873825117945671
aF-0.11097774654626846
aF-0.16004706919193268
aF0.15430977940559387
aF-0.031116968020796776
aF-0.030839338898658752
aF-0.035417504608631134
aF-0.1364150196313858
aF0.1279173493385315
aF0.04985594376921654
aF0.06928646564483643
aF0.2059674710035324
aF0.0624660849571228
aF-0.12010566145181656
aF0.022362980991601944
aF-0.054938655346632004
aF-0.006103632505983114
aF-0.0026337725576013327
aF-0.0052398755215108395
aF0.016257131472229958
aF-0.04781003296375275
aF0.03298941254615784
aF0.13350917398929596
aF0.03015567548573017
aF-0.030475735664367676
aF0.01274395827203989
aF0.002348523121327162
aF0.016800114884972572
aF-0.12354434281587601
aF0.13406455516815186
aF0.0032736847642809153
aF0.009323721751570702
aF0.10541373491287231
aF-0.21442142128944397
aF0.06035654619336128
aF0.1651507019996643
aF-0.013568397611379623
aF0.20623351633548737
aF0.009985481388866901
aF-0.022157616913318634
aF0.21856920421123505
aF-0.05472206696867943
aF0.07633195072412491
aF0.06775901466608047
aF0.015848232433199883
aF-0.060158707201480865
aF0.08268839120864868
aF0.08533964306116104
aF-0.0005466357106342912
aF-0.08588982373476028
aF0.0630388855934143
aF0.06395868957042694
aF-0.11166049540042877
aF-0.09122757613658905
aF0.012676217593252659
aF0.13242416083812714
aF0.018989281728863716
aF0.22320543229579926
aF-0.03997445106506348
aF-0.09252605587244034
aF-0.0877106636762619
aF-0.05121743306517601
aF-0.18683181703090668
aF-0.06655752658843994
aF0.07677900791168213
aF-0.16942353546619415
aF-0.002196831628680229
aF0.15054890513420105
aF-0.02256648801267147
aF0.0869486927986145
aF0.08809459954500198
aa(lp27
F0.07409336417913437
aF0.0885191485285759
aF0.2668675482273102
aF-0.12002918869256973
aF-0.034768495708703995
aF-0.15451310575008392
aF0.010405285283923149
aF-0.061710160225629807
aF-0.029650436714291573
aF0.040599092841148376
aF0.14599256217479706
aF-0.037882883101701736
aF-0.033972762525081635
aF-0.11136851459741592
aF-0.03457794710993767
aF0.061572302132844925
aF0.030570734292268753
aF0.08423105627298355
aF-0.0025423383340239525
aF-0.03465242311358452
aF0.021712707355618477
aF-0.06045250594615936
aF0.04817356541752815
aF0.08336092531681061
aF0.036887433379888535
aF-0.007491926662623882
aF-0.025707995519042015
aF-0.0069968365132808685
aF-0.13349513709545135
aF0.10730569064617157
aF0.04843166470527649
aF-0.09182901680469513
aF0.027973566204309464
aF-0.040059227496385574
aF-0.16859713196754456
aF0.044432781636714935
aF0.13567976653575897
aF0.05014421045780182
aF-0.1324695199728012
aF-0.06327509135007858
aF-0.002548595191910863
aF-0.026171719655394554
aF0.09940429776906967
aF-0.05595763027667999
aF-0.06744785606861115
aF0.03038722276687622
aF-0.04965951666235924
aF0.05869906395673752
aF0.10687895864248276
aF-0.02470499649643898
aF0.051770806312561035
aF-0.01746688038110733
aF-0.01436926331371069
aF0.03945271298289299
aF0.07491869479417801
aF0.026731260120868683
aF0.1169310212135315
aF-0.021611757576465607
aF-0.14765886962413788
aF0.034271109849214554
aF0.07216460257768631
aF-0.11609208583831787
aF-0.0435456782579422
aF-0.030031781643629074
aF-0.13093113899230957
aF0.07135666161775589
aF0.03955675661563873
aF0.27359065413475037
aF0.15058037638664246
aF-0.06347062438726425
aF0.07627128809690475
aF-0.0015009797643870115
aF0.01082597579807043
aF-0.04651074856519699
aF-0.04504913464188576
aF0.09408160299062729
aF-0.12067101150751114
aF0.01758495159447193
aF0.13703568279743195
aF-0.005942027550190687
aF-0.016402458772063255
aF-0.08375612646341324
aF-0.09379898011684418
aF-0.01626254804432392
aF-0.1084212139248848
aF-0.03497029468417168
aF0.08809218555688858
aF0.2104882299900055
aF-0.020711462944746017
aF0.06697416305541992
aF-0.17499709129333496
aF-0.15279363095760345
aF0.020257500931620598
aF-0.11063916981220245
aF0.10086221992969513
aF0.19128623604774475
aF0.092446468770504
aF0.13667716085910797
aF0.02407434768974781
aF-0.010824955068528652
aF0.013204507529735565
aF-0.028370894491672516
aF0.07928472012281418
aF-0.039791520684957504
aF0.02599172294139862
aF0.09030532836914062
aF-0.08799699693918228
aF0.06541857123374939
aF0.07345308363437653
aF0.05891679972410202
aF-0.12524007260799408
aF0.01882968656718731
aF0.009573624469339848
aF-0.049721576273441315
aF0.1857818365097046
aF-0.014095890335738659
aF0.16170354187488556
aF-0.022791890427470207
aF0.014565740711987019
aF-0.07511314749717712
aF0.13558202981948853
aF-0.03115811012685299
aF0.0418897308409214
aF-0.05795225501060486
aF0.1178487241268158
aF-0.02451513335108757
aF-0.10606508702039719
aF-0.03239956498146057
aa(lp28
F-0.1280873715877533
aF0.03766445443034172
aF0.03215803578495979
aF-0.15099556744098663
aF-0.04151775315403938
aF-0.023343751206994057
aF-0.008311954326927662
aF0.06556963175535202
aF-0.16880373656749725
aF-0.0008118055993691087
aF0.11400839686393738
aF0.17413535714149475
aF-0.10494163632392883
aF0.08395616710186005
aF-0.0028106688987463713
aF-0.07003287225961685
aF-0.0412648506462574
aF0.054520636796951294
aF0.05128905177116394
aF0.07506460696458817
aF0.06687392294406891
aF-0.012611757032573223
aF0.18841715157032013
aF-0.11717608571052551
aF0.1169794350862503
aF0.029573392122983932
aF0.18984298408031464
aF-0.061636392027139664
aF0.028758009895682335
aF0.102875716984272
aF0.09189384430646896
aF0.046006668359041214
aF-0.11095716804265976
aF-0.04748883470892906
aF0.06945455819368362
aF0.1295272409915924
aF-0.12390338629484177
aF-0.04147467762231827
aF-0.031890787184238434
aF0.10000685602426529
aF0.08398716151714325
aF-0.08930648863315582
aF0.0427476167678833
aF0.014356901869177818
aF0.08015191555023193
aF-0.1042877733707428
aF-0.08060101419687271
aF0.11796559393405914
aF-0.08961616456508636
aF-0.012143227271735668
aF-0.0737643614411354
aF-0.0225079208612442
aF-0.11358897387981415
aF0.09754068404436111
aF-0.00040799056296236813
aF-0.09384839981794357
aF0.055699773132801056
aF0.01722492091357708
aF0.1217627301812172
aF0.13424944877624512
aF-0.013822752051055431
aF0.029153769835829735
aF-0.08799489587545395
aF-0.003222258761525154
aF0.016601119190454483
aF-0.0784742534160614
aF0.04733297973871231
aF-0.10085105895996094
aF0.20344485342502594
aF-0.04854705557227135
aF-0.1311652660369873
aF0.12694774568080902
aF0.07107918709516525
aF-0.0695139542222023
aF-0.12006691098213196
aF0.027175454422831535
aF0.009975901804864407
aF0.04312257096171379
aF-0.13810978829860687
aF0.07757323235273361
aF-0.16493788361549377
aF-0.06595494598150253
aF-0.07035434991121292
aF0.035030994564294815
aF-0.11131536960601807
aF0.020676158368587494
aF-0.02413186803460121
aF-0.08358941227197647
aF0.13868194818496704
aF0.03978993743658066
aF-0.16547374427318573
aF0.06796159595251083
aF0.028379719704389572
aF0.06268748641014099
aF-0.09052148461341858
aF-0.1087631955742836
aF0.021763714030385017
aF0.17646759748458862
aF0.06901351362466812
aF0.052465297281742096
aF0.06639211624860764
aF-0.09339025616645813
aF0.08390448987483978
aF0.06834595650434494
aF-0.06023946776986122
aF0.0630582720041275
aF-0.0980900377035141
aF-0.04657313972711563
aF0.011413149535655975
aF0.0244037676602602
aF-0.06446372717618942
aF0.044741060584783554
aF0.01707088202238083
aF-0.1523275226354599
aF0.07105520367622375
aF0.05218052491545677
aF-0.07163453102111816
aF0.06501756608486176
aF0.05579473078250885
aF0.026353025808930397
aF-0.09243672341108322
aF-0.12519471347332
aF0.11083333939313889
aF-0.07808156311511993
aF-0.06873037666082382
aF-0.16643470525741577
aF0.06354110687971115
aF-0.08290642499923706
aa(lp29
F0.08938004076480865
aF0.08131806552410126
aF-0.03009869158267975
aF-0.04277072474360466
aF0.01140021812170744
aF0.028837598860263824
aF0.07461197674274445
aF0.23086518049240112
aF-0.005880414042621851
aF-0.0935261994600296
aF-0.04754263162612915
aF0.11340244114398956
aF0.13420851528644562
aF0.1580827683210373
aF-0.05115830898284912
aF-0.08053730428218842
aF0.04729597270488739
aF-0.07237085700035095
aF0.04401179403066635
aF0.06032590940594673
aF0.07044123113155365
aF0.09582450240850449
aF0.14556416869163513
aF0.08515221625566483
aF0.10177043080329895
aF0.010953708551824093
aF0.09693694114685059
aF0.04609603062272072
aF0.03225686773657799
aF0.08490929007530212
aF0.10248236358165741
aF0.015803780406713486
aF-0.09565369039773941
aF-0.023611271753907204
aF0.0974380150437355
aF0.04395446553826332
aF-0.1612917184829712
aF0.1248878464102745
aF0.1393435299396515
aF0.10665134340524673
aF-0.06205007806420326
aF0.11877333372831345
aF-0.046699538826942444
aF0.05363432317972183
aF0.09598187357187271
aF-0.02655000425875187
aF0.06333304196596146
aF-0.08240650594234467
aF-0.19721361994743347
aF0.06379646807909012
aF0.1794702410697937
aF-0.011770299635827541
aF0.054300278425216675
aF-0.0036207246594130993
aF0.13433139026165009
aF-0.008194136433303356
aF-0.050011180341243744
aF0.0548073947429657
aF0.1033393070101738
aF0.10311790555715561
aF-0.16134785115718842
aF-0.16671670973300934
aF0.07431349903345108
aF0.16529838740825653
aF0.2253817766904831
aF0.015401196666061878
aF0.0676121711730957
aF0.03375408425927162
aF0.06962414085865021
aF-0.03933510556817055
aF0.05743931978940964
aF0.0523395761847496
aF0.03960646688938141
aF0.0015430358471348882
aF-0.16434723138809204
aF0.0945761427283287
aF-0.07206013798713684
aF0.01172639336436987
aF0.06721163541078568
aF0.08448570966720581
aF0.027018830180168152
aF0.05563569813966751
aF-0.01620258204638958
aF-0.004815364722162485
aF0.07307270914316177
aF-0.019102927297353745
aF0.08571099489927292
aF-0.1653532087802887
aF-0.029519248753786087
aF-0.029121432453393936
aF0.07293659448623657
aF0.06554605066776276
aF-0.031407956033945084
aF-0.06941498070955276
aF-0.09086279571056366
aF-0.06769440323114395
aF-0.010169376619160175
aF0.06587201356887817
aF0.028702473267912865
aF-0.0973919928073883
aF0.019813252612948418
aF-0.09063013643026352
aF0.02493634633719921
aF-0.08716970682144165
aF0.026272695511579514
aF0.06475808471441269
aF0.022426515817642212
aF0.07432370632886887
aF0.04911460354924202
aF0.043223340064287186
aF0.13436385989189148
aF-0.06255067884922028
aF0.06800618022680283
aF0.1563296765089035
aF0.05920400097966194
aF-0.03048110567033291
aF-0.0545818954706192
aF-0.056406520307064056
aF-0.05643896758556366
aF0.12395897507667542
aF-0.09113619476556778
aF-0.10427698493003845
aF0.08635404706001282
aF0.15178443491458893
aF0.06148916482925415
aF0.08053924888372421
aF0.1244201809167862
aF-0.05004694685339928
aa(lp30
F-0.06959212571382523
aF0.09220278263092041
aF-0.1800299435853958
aF0.0709635317325592
aF0.18487265706062317
aF-0.05486439913511276
aF-0.03338661044836044
aF-0.1268140822649002
aF-0.011606520041823387
aF-0.011953628621995449
aF0.15202879905700684
aF-0.15443076193332672
aF0.04491192847490311
aF0.0910130962729454
aF-0.0685291588306427
aF0.034290362149477005
aF-0.061242856085300446
aF0.0068441047333180904
aF0.08245931565761566
aF0.051179349422454834
aF0.06057588383555412
aF-0.10968971997499466
aF-0.19381405413150787
aF0.020877618342638016
aF-0.013496763072907925
aF-0.013731003738939762
aF-0.06578551977872849
aF-0.0438612662255764
aF0.08445081114768982
aF-0.09060855209827423
aF0.04853854328393936
aF-0.02210923656821251
aF0.1066599115729332
aF-0.11212562769651413
aF-0.06981129944324493
aF-0.08113107830286026
aF-0.021877039223909378
aF0.04881834611296654
aF0.004108882043510675
aF-0.17873762547969818
aF0.01961284875869751
aF0.10785147547721863
aF-0.19601626694202423
aF0.026254231110215187
aF0.011588778346776962
aF-0.03528212755918503
aF-0.030227143317461014
aF-0.02105124667286873
aF0.0009926677448675036
aF0.12207132577896118
aF0.01723187230527401
aF-0.10056113451719284
aF-9.49309251154773e-05
aF-0.10301955789327621
aF0.11409786343574524
aF0.03195130452513695
aF-0.023093853145837784
aF-0.020441366359591484
aF-0.14015895128250122
aF-0.036875803023576736
aF0.06487175077199936
aF0.052220866084098816
aF-0.07285146415233612
aF0.15542656183242798
aF0.12508513033390045
aF0.1989883929491043
aF-0.003996668383479118
aF0.08482961356639862
aF-0.1520746350288391
aF-0.10565003007650375
aF0.08413431793451309
aF-0.04412535950541496
aF-0.06272240728139877
aF-0.15784259140491486
aF-0.06586365401744843
aF0.04688157141208649
aF-0.08156825602054596
aF0.022156480699777603
aF0.13496771454811096
aF0.0746794119477272
aF0.047611039131879807
aF0.08006531745195389
aF0.01059457566589117
aF0.1141013577580452
aF0.047347284853458405
aF-0.0206467118114233
aF0.048393163830041885
aF0.12292563170194626
aF-0.07665421068668365
aF0.003938342910259962
aF0.09274743497371674
aF0.009885596111416817
aF-0.04927445203065872
aF0.17217938601970673
aF0.04300517588853836
aF-0.11407968401908875
aF0.005724200513213873
aF0.03707374632358551
aF0.065442755818367
aF0.015350822359323502
aF0.05538985878229141
aF-0.15224193036556244
aF0.0671299546957016
aF-0.027875645086169243
aF-0.08246464282274246
aF0.05332927405834198
aF0.01924903504550457
aF0.013261127285659313
aF-0.0792839378118515
aF-0.04225146025419235
aF0.1490679383277893
aF-0.01686384528875351
aF-0.09055138379335403
aF-0.05225261673331261
aF0.01738380454480648
aF-0.1067335456609726
aF0.11918846517801285
aF-0.08587318658828735
aF0.07512124627828598
aF0.15470606088638306
aF-0.11342551559209824
aF0.1345849335193634
aF0.02225358784198761
aF-0.040884461253881454
aF0.10779089480638504
aF0.03401008993387222
aF0.18369124829769135
aF-0.007510915864259005
aa(lp31
F-0.008804050274193287
aF-0.01809658110141754
aF0.09656373411417007
aF0.12370414286851883
aF0.0804516077041626
aF-0.10592415183782578
aF-0.022960152477025986
aF-0.02474641427397728
aF-0.11591777205467224
aF0.08645724505186081
aF0.1269066035747528
aF-0.16314616799354553
aF0.005670693702995777
aF0.12861879169940948
aF-0.1270742565393448
aF0.07415691018104553
aF0.022920921444892883
aF-0.052090659737586975
aF0.1101197898387909
aF-0.03664231672883034
aF-0.09542682766914368
aF-0.05597129836678505
aF-0.12071114778518677
aF0.15290673077106476
aF-0.12586772441864014
aF-0.12089648097753525
aF0.10432484745979309
aF0.0209796242415905
aF-0.03468479961156845
aF-0.006948310881853104
aF0.10429886728525162
aF-0.05371730029582977
aF0.06404692679643631
aF0.07978488504886627
aF-0.053883861750364304
aF-0.04494781047105789
aF-0.08358560502529144
aF0.09638353437185287
aF0.10521921515464783
aF0.010266325436532497
aF0.05118345841765404
aF-0.017579086124897003
aF0.014734557829797268
aF0.04043188318610191
aF-0.14947278797626495
aF0.10440031439065933
aF-0.0981680154800415
aF-0.16915632784366608
aF0.08527474850416183
aF-0.09296171367168427
aF-0.10210100561380386
aF0.0325462743639946
aF0.09320243448019028
aF0.06180967390537262
aF-0.09077669680118561
aF0.13595543801784515
aF0.1350003331899643
aF-0.06654635071754456
aF-0.1709289401769638
aF-0.07031723111867905
aF0.0132412388920784
aF-0.10691086947917938
aF-0.04597068205475807
aF-0.0222232174128294
aF-0.11674246191978455
aF0.14086483418941498
aF-0.06134963035583496
aF0.12459643185138702
aF-0.017062818631529808
aF0.07194515317678452
aF-0.02344886213541031
aF0.11598671972751617
aF0.061720460653305054
aF-0.03262966871261597
aF-0.05698452517390251
aF-0.021106913685798645
aF-0.055100951343774796
aF0.0071837869472801685
aF0.011203570291399956
aF-0.10812951624393463
aF-0.12701532244682312
aF0.08019048720598221
aF0.04177098348736763
aF-0.008370786905288696
aF0.0067667532712221146
aF0.06431635469198227
aF-0.07921649515628815
aF0.06445693969726562
aF0.0937793031334877
aF0.1323675513267517
aF0.004733748268336058
aF-0.0017104530707001686
aF0.07794958353042603
aF0.09629375487565994
aF-0.016872677952051163
aF-0.08116646856069565
aF0.10105342417955399
aF-0.1066574901342392
aF-0.023728342726826668
aF-0.08176428824663162
aF0.06419219076633453
aF-0.14702513813972473
aF0.08320197463035583
aF0.09314868599176407
aF0.14112474024295807
aF0.010075579397380352
aF0.05240625515580177
aF0.08456148952245712
aF-0.12075450271368027
aF0.0030028114560991526
aF0.18460935354232788
aF0.020692352205514908
aF-0.11589083075523376
aF0.026934271678328514
aF0.17870700359344482
aF-0.0025808573700487614
aF0.09441189467906952
aF-0.11915271729230881
aF-0.09444046765565872
aF0.011274653486907482
aF-0.12182047218084335
aF-0.15759624540805817
aF-0.01210709661245346
aF0.09662315249443054
aF-0.030493536964058876
aF-0.03422675281763077
aF-0.04766649007797241
aF0.09787861257791519
aa(lp32
F-0.03300541266798973
aF0.09354909509420395
aF-0.07103007286787033
aF-0.12253452092409134
aF-0.18721696734428406
aF-0.015408175066113472
aF0.01738857477903366
aF0.032214194536209106
aF0.044284556061029434
aF-0.006402057129889727
aF-0.021119138225913048
aF-0.055497411638498306
aF0.10482189059257507
aF-0.09250611811876297
aF0.07269708067178726
aF-0.14678795635700226
aF-0.17303454875946045
aF-0.0021229074336588383
aF0.2705811858177185
aF0.11010059714317322
aF0.0747264102101326
aF-0.02909301221370697
aF0.1101386621594429
aF-0.020662181079387665
aF-0.04844316095113754
aF-0.05587181821465492
aF0.05817142874002457
aF-0.05623244121670723
aF0.016139235347509384
aF-0.0796230211853981
aF0.022513415664434433
aF-0.07495126873254776
aF-0.12229213863611221
aF0.04608755186200142
aF-0.01210741326212883
aF0.08519168943166733
aF-0.260231077671051
aF0.0007837646990083158
aF0.02170863375067711
aF-0.03206967934966087
aF0.006464360747486353
aF0.0752139687538147
aF0.16951438784599304
aF-0.020804284140467644
aF-0.0921999141573906
aF0.004996842239052057
aF-0.04291374236345291
aF-0.031895626336336136
aF0.0800105482339859
aF0.09293458610773087
aF0.01537361741065979
aF0.04596088081598282
aF-0.12858733534812927
aF0.08090848475694656
aF0.19379867613315582
aF0.028918767347931862
aF-0.04403984546661377
aF-0.05469995364546776
aF0.022184647619724274
aF-0.13232387602329254
aF0.08433901518583298
aF-0.18326310813426971
aF0.008115922100841999
aF0.05513903498649597
aF0.13164959847927094
aF0.012224916368722916
aF-0.13134390115737915
aF-0.00927470251917839
aF-0.05332169681787491
aF0.005169754382222891
aF0.00011656525748549029
aF-0.011783926747739315
aF-0.006431453861296177
aF-0.06406057626008987
aF-0.08772572129964828
aF-0.005105250049382448
aF-0.1819501370191574
aF-0.024585392326116562
aF-0.08331713080406189
aF0.013670007698237896
aF0.013055351562798023
aF-0.10974548757076263
aF-0.07937274873256683
aF0.05401990935206413
aF-0.030917489901185036
aF0.04511485993862152
aF-0.04468884319067001
aF-0.10172799974679947
aF0.011674494482576847
aF0.007902800105512142
aF0.05819673836231232
aF0.060313355177640915
aF-0.05893741920590401
aF-0.002162021351978183
aF-0.11280493438243866
aF-0.02751823328435421
aF0.08486665785312653
aF0.1611320823431015
aF0.05626047030091286
aF0.08780085295438766
aF0.048617973923683167
aF0.013839688152074814
aF0.09451443701982498
aF0.031317804008722305
aF-0.01007246132940054
aF-0.10843604058027267
aF-0.12995578348636627
aF-0.21593792736530304
aF-0.1256474405527115
aF0.008312787860631943
aF-0.00251143891364336
aF-0.06407426297664642
aF0.015754936262965202
aF0.0029198583215475082
aF0.06472622603178024
aF-0.08047107607126236
aF-0.19533389806747437
aF0.05249013379216194
aF0.07423380762338638
aF0.16452841460704803
aF-0.03520521521568298
aF0.09406448155641556
aF0.07630232721567154
aF-0.004352382384240627
aF0.08907116949558258
aF0.10257953405380249
aF0.10387662798166275
aF-0.06381901353597641
aa(lp33
F0.059788111597299576
aF-0.056229736655950546
aF0.09391706436872482
aF-0.14733324944972992
aF0.046163979917764664
aF-0.15747633576393127
aF-0.16368314623832703
aF-0.027342859655618668
aF-0.07179194688796997
aF0.16367985308170319
aF-0.17762787640094757
aF-0.009901748038828373
aF-0.014440417289733887
aF0.005540918558835983
aF0.13962429761886597
aF0.0004031707940157503
aF-0.12096643447875977
aF0.11041586846113205
aF0.143923819065094
aF0.01723416894674301
aF0.058740612119436264
aF0.12512023746967316
aF-0.08311008661985397
aF-0.1301763504743576
aF0.00020926159049849957
aF0.020489228889346123
aF0.13049668073654175
aF0.00024983729235827923
aF0.06647225469350815
aF-0.11881770938634872
aF0.08616658300161362
aF-0.09595216065645218
aF-0.08259130269289017
aF-0.184659942984581
aF0.005147636868059635
aF-0.06859786063432693
aF0.03232315555214882
aF-0.024294476956129074
aF-0.06379900872707367
aF-0.10578181594610214
aF0.04952620714902878
aF-0.12356302887201309
aF0.12146096676588058
aF0.07888130098581314
aF-0.013378890231251717
aF0.11133363097906113
aF0.05336343124508858
aF0.05780385062098503
aF0.04159213975071907
aF-0.038786642253398895
aF-0.14909423887729645
aF0.0016929525882005692
aF0.01885732263326645
aF-0.04153754189610481
aF-0.059078413993120193
aF0.06650944799184799
aF0.026531830430030823
aF-0.14112231135368347
aF0.01373522449284792
aF0.07698331773281097
aF-0.012461120262742043
aF-0.0639347955584526
aF0.011760067194700241
aF0.13041739165782928
aF0.10885187238454819
aF0.10723759233951569
aF-0.07568137347698212
aF-0.09248422831296921
aF0.13712376356124878
aF-0.0011008899891749024
aF0.022191183641552925
aF0.0844801664352417
aF0.09129960834980011
aF-0.04576858505606651
aF0.03901400789618492
aF-0.09444087743759155
aF0.04391944035887718
aF0.09364974498748779
aF0.04634639620780945
aF-0.0233688373118639
aF0.10650955140590668
aF-0.07176416367292404
aF-0.1686130315065384
aF-0.0008605580078437924
aF-0.1445353627204895
aF0.029597211629152298
aF0.07840533554553986
aF-0.09910104423761368
aF-0.07130437344312668
aF-0.0989723727107048
aF0.044290121644735336
aF0.06709621101617813
aF-0.07865574210882187
aF0.10741303861141205
aF-0.16114751994609833
aF-0.08919776231050491
aF-0.052298806607723236
aF0.1618179827928543
aF-0.12878069281578064
aF-0.09482794255018234
aF-0.02590031363070011
aF-0.010024940595030785
aF0.10189204663038254
aF0.01719672605395317
aF0.03214395046234131
aF0.08714251965284348
aF0.042278166860342026
aF-0.13762202858924866
aF-0.05200305953621864
aF0.05944500491023064
aF0.07470447570085526
aF0.033768974244594574
aF-0.15001486241817474
aF-0.04896508529782295
aF-0.05675365403294563
aF0.035654302686452866
aF-0.045036524534225464
aF-0.06419268995523453
aF-0.07410760968923569
aF0.16583651304244995
aF-0.10085764527320862
aF-0.012312880717217922
aF-0.00043764925794675946
aF-0.07453390210866928
aF-0.06352576613426208
aF-0.12483912706375122
aF0.03361573442816734
aF-0.10259919613599777
aa(lp34
F-0.08150407671928406
aF-0.0887039452791214
aF0.1256026178598404
aF-0.1223180741071701
aF0.05322996899485588
aF-0.05941992998123169
aF0.02061026729643345
aF0.11032160371541977
aF0.030921736732125282
aF0.1361268311738968
aF0.005462466273456812
aF-0.14369694888591766
aF-0.0516045056283474
aF-0.013905399478971958
aF0.026261089369654655
aF0.05483653396368027
aF0.15513752400875092
aF-0.020831458270549774
aF0.0027111489325761795
aF0.02366764098405838
aF-0.030705619603395462
aF-0.18125009536743164
aF-0.011382331140339375
aF0.07817485183477402
aF-0.10291185230016708
aF0.07181922346353531
aF-0.09119129180908203
aF-0.027516061440110207
aF-0.1425275355577469
aF-0.004503544885665178
aF0.08681071549654007
aF0.0292971208691597
aF0.09776129573583603
aF0.03216364234685898
aF0.12014511972665787
aF0.11019531637430191
aF0.03267079219222069
aF-0.014805488288402557
aF-0.09601853787899017
aF-0.1021401509642601
aF0.01749049499630928
aF-0.02952440455555916
aF-0.11907020211219788
aF0.032380323857069016
aF0.02265990525484085
aF0.042846061289310455
aF0.009193162433803082
aF-0.1636253148317337
aF0.07248619943857193
aF0.022692183032631874
aF-0.07115902006626129
aF0.11209414154291153
aF-0.0015629295958206058
aF-0.060497794300317764
aF-0.1562199592590332
aF0.13205869495868683
aF-0.06716291606426239
aF-0.10921087116003036
aF0.07665854692459106
aF-0.1402253955602646
aF0.08152759820222855
aF-0.07756852358579636
aF-0.09183895587921143
aF-0.0209600031375885
aF-0.17535634338855743
aF0.04411518573760986
aF0.14441347122192383
aF0.1464846283197403
aF0.12881311774253845
aF0.005448656156659126
aF-0.05679645761847496
aF-0.009826377965509892
aF-0.08550295233726501
aF0.005761748179793358
aF0.015847304835915565
aF-0.04644359275698662
aF0.033654265105724335
aF0.14900989830493927
aF0.12226328998804092
aF-0.048350974917411804
aF-0.13048146665096283
aF-0.054470840841531754
aF-0.07911130040884018
aF0.008880548179149628
aF-0.029339753091335297
aF0.03899244964122772
aF-0.005514521151781082
aF0.09474582225084305
aF0.06904787570238113
aF0.004673969931900501
aF-0.029558170586824417
aF-0.056505050510168076
aF0.110785573720932
aF-0.1360810548067093
aF0.01773029938340187
aF0.06159130483865738
aF-0.06079872325062752
aF0.1293654888868332
aF-0.005119210574775934
aF-0.05888988822698593
aF0.061074383556842804
aF-0.02577301859855652
aF0.10964593291282654
aF0.11986604332923889
aF0.12722742557525635
aF-0.032560404390096664
aF-0.04801636561751366
aF0.11486460268497467
aF0.147133007645607
aF-0.12094946950674057
aF0.09342146664857864
aF0.01963089220225811
aF0.03702360391616821
aF-0.05051951855421066
aF0.2611006796360016
aF-0.021348729729652405
aF-0.010664685629308224
aF0.08431397378444672
aF-0.015102609992027283
aF0.01299196295440197
aF0.021096231415867805
aF-0.08870631456375122
aF-0.17964589595794678
aF0.09362471848726273
aF0.17632679641246796
aF-0.06176169589161873
aF-0.03096921741962433
aF0.09613118320703506
aa(lp35
F-0.12904642522335052
aF-0.0664479061961174
aF0.048904381692409515
aF0.12394572794437408
aF-0.0725354552268982
aF-0.08689755201339722
aF-0.07590710371732712
aF-0.07172670215368271
aF-0.128500834107399
aF0.10999611765146255
aF-0.14311818778514862
aF0.08441457897424698
aF0.061511892825365067
aF-0.1030416414141655
aF0.14875079691410065
aF0.09462442994117737
aF-0.1014169305562973
aF-0.03409731760621071
aF0.07553236186504364
aF0.07844986021518707
aF-0.05460824817419052
aF-0.05919291824102402
aF-0.19791728258132935
aF-0.09439852833747864
aF-0.04850855469703674
aF0.05783259496092796
aF-0.1421697735786438
aF-0.11017683148384094
aF-0.06311436742544174
aF-0.020491886883974075
aF0.12152709811925888
aF-0.08090246468782425
aF-0.05354873463511467
aF0.03189801052212715
aF-0.02311108261346817
aF-0.1810169368982315
aF-0.03892612084746361
aF-0.036698635667562485
aF0.0027068720664829016
aF-0.08191345632076263
aF0.10322517901659012
aF-0.03714292496442795
aF-0.007153005339205265
aF-0.020203258842229843
aF0.09020030498504639
aF0.05620754882693291
aF0.07609294354915619
aF0.04541970416903496
aF0.12157577276229858
aF0.09643025696277618
aF-0.048782605677843094
aF0.13783283531665802
aF0.125631645321846
aF-0.13644471764564514
aF-0.18360435962677002
aF0.07137870043516159
aF-0.023945970460772514
aF-0.10936751961708069
aF-0.04124879837036133
aF-0.03509950637817383
aF-0.1076396182179451
aF0.06836793571710587
aF-0.03827095776796341
aF-0.003598544280976057
aF-0.19958440959453583
aF-0.04352237656712532
aF0.08346804976463318
aF0.08416680246591568
aF0.13061052560806274
aF-0.10683690011501312
aF0.0389309898018837
aF0.005577347707003355
aF0.09217597544193268
aF0.01851278729736805
aF-0.04471771419048309
aF-0.026036461815238
aF0.15147212147712708
aF0.062288738787174225
aF0.11545591801404953
aF0.14335329830646515
aF0.04902491346001625
aF-0.006266163662075996
aF-0.007251298520714045
aF0.02828807383775711
aF-0.00946863368153572
aF-0.046672381460666656
aF-0.07241424173116684
aF-0.072212353348732
aF-0.08579476177692413
aF0.036033350974321365
aF-0.10321145504713058
aF0.003213731339201331
aF-0.09700454771518707
aF-0.08330758661031723
aF0.06173636391758919
aF-0.009399395436048508
aF-0.1250084638595581
aF-0.05706331878900528
aF-0.08558551222085953
aF0.12093158811330795
aF0.11634181439876556
aF0.0048110028728842735
aF-0.010794045403599739
aF0.11036457866430283
aF-0.06905940920114517
aF-0.026419123634696007
aF-0.13963128626346588
aF0.01603838801383972
aF-0.03415107727050781
aF0.04153435304760933
aF0.07365452498197556
aF-0.049547791481018066
aF-0.025999242439866066
aF-0.005052636377513409
aF0.17953602969646454
aF0.10365471243858337
aF-0.029048917815089226
aF-0.04084160923957825
aF-0.06823894381523132
aF0.07010170817375183
aF-0.1348908692598343
aF0.09369920939207077
aF-0.008189230225980282
aF-0.08278970420360565
aF-0.09903628379106522
aF-0.037088751792907715
aF-0.14264358580112457
aF0.16233792901039124
aa(lp36
F0.07601245492696762
aF0.057398971170186996
aF-0.009827074594795704
aF-0.06354033201932907
aF0.018991395831108093
aF-0.06985588371753693
aF0.05339432880282402
aF-0.12580640614032745
aF0.14899180829524994
aF-0.10774488002061844
aF0.12379655987024307
aF0.1163860559463501
aF0.044578615576028824
aF-0.012093418277800083
aF0.09447897970676422
aF-0.030769851058721542
aF-0.039151325821876526
aF0.032313063740730286
aF-0.10122297704219818
aF-0.042298849672079086
aF0.0001231949427165091
aF0.1128455325961113
aF0.06784144043922424
aF0.0581122450530529
aF-0.006411916110664606
aF0.11792612075805664
aF-0.14923878014087677
aF0.14866672456264496
aF0.06057845801115036
aF-0.0895601287484169
aF0.13077187538146973
aF0.10760099440813065
aF0.16565698385238647
aF-0.04673681780695915
aF-0.062063973397016525
aF0.06250143051147461
aF0.12779206037521362
aF0.07528761029243469
aF-0.11486668884754181
aF0.12079393863677979
aF-0.08646529912948608
aF-0.12962807714939117
aF0.10891908407211304
aF0.010371819138526917
aF0.11917201429605484
aF-0.05020418018102646
aF0.05754812806844711
aF0.09201838821172714
aF0.03279627114534378
aF-0.0689997747540474
aF0.1250082105398178
aF0.08229748159646988
aF0.054283592849969864
aF-0.0653315857052803
aF-0.04630889743566513
aF-0.10417857766151428
aF0.05741049349308014
aF-0.031727634370326996
aF-0.01484109740704298
aF0.22438441216945648
aF-0.023102067410945892
aF-0.06910263001918793
aF0.019410986453294754
aF-0.050079286098480225
aF0.0884818360209465
aF0.03066614456474781
aF-0.05525927245616913
aF-0.1366608738899231
aF0.03305630385875702
aF0.11997488141059875
aF0.003283032448962331
aF-0.0470070019364357
aF0.13765710592269897
aF0.1098126769065857
aF0.008078892715275288
aF0.1057761013507843
aF-0.040664516389369965
aF-0.029115958139300346
aF0.16998271644115448
aF0.09040288627147675
aF-0.10043609887361526
aF0.05436208099126816
aF0.02404315583407879
aF0.0032514226622879505
aF-0.066604383289814
aF0.0823984369635582
aF0.18359245359897614
aF-0.1049712598323822
aF-0.07942671328783035
aF0.04366258904337883
aF-0.1585499495267868
aF0.006923311855643988
aF-0.007469682954251766
aF-0.08596272021532059
aF0.11642831563949585
aF0.017840424552559853
aF0.02526252157986164
aF0.11224499344825745
aF0.0001677097170613706
aF-0.14995653927326202
aF0.018274398520588875
aF0.00984225608408451
aF0.08732839673757553
aF-0.015114918351173401
aF-0.10586781054735184
aF-0.08664272725582123
aF-0.05727492272853851
aF0.17703157663345337
aF-0.004667308181524277
aF0.043051838874816895
aF-0.12949447333812714
aF-0.007269918918609619
aF0.14538607001304626
aF0.015048735775053501
aF0.00014570303028449416
aF0.1778092384338379
aF0.08982088416814804
aF-0.03812829777598381
aF-0.0066388691775500774
aF-0.016143137589097023
aF0.020157217979431152
aF-0.0549684576690197
aF-0.08870097994804382
aF0.14759713411331177
aF-0.08263587206602097
aF-0.0026734641287475824
aF0.12282240390777588
aF0.05047037824988365
aa(lp37
F-0.09326068311929703
aF0.004082548897713423
aF-0.17997635900974274
aF0.06337296962738037
aF-0.0020411780569702387
aF0.03036465495824814
aF0.08160807937383652
aF-0.056607961654663086
aF0.13064861297607422
aF0.01943802647292614
aF0.16739213466644287
aF-0.02649959921836853
aF0.02514764666557312
aF0.1303917020559311
aF0.00622538710013032
aF-0.11600968986749649
aF0.026469361037015915
aF-0.03961953893303871
aF-0.11201483756303787
aF-0.01153181865811348
aF-0.0011431733146309853
aF0.08369401842355728
aF-0.14728690683841705
aF-0.05885607749223709
aF-0.04705461859703064
aF-0.10987792909145355
aF-0.12317980080842972
aF0.04670301079750061
aF0.07149682193994522
aF0.02161520905792713
aF0.052439671009778976
aF0.04171496257185936
aF0.13111485540866852
aF0.0891549214720726
aF0.03201059252023697
aF-0.025052513927221298
aF0.06338135898113251
aF-0.0522373802959919
aF-0.0514666885137558
aF0.05195687338709831
aF0.05581073835492134
aF-0.04691417142748833
aF-0.052171822637319565
aF0.009007862769067287
aF0.007441934198141098
aF0.03011018969118595
aF0.11129078269004822
aF0.024299409240484238
aF-0.1883237361907959
aF-0.1382116675376892
aF0.08820772171020508
aF-0.001673539518378675
aF-0.0325942225754261
aF-0.041674233973026276
aF-0.0054339515045285225
aF0.007392811123281717
aF-0.16348455846309662
aF-0.03741838037967682
aF-0.1264687031507492
aF0.015298138372600079
aF-0.13347524404525757
aF0.023481998592615128
aF-0.021158790215849876
aF-0.08343809098005295
aF0.18515849113464355
aF0.08764489740133286
aF0.03512239828705788
aF-0.03250427544116974
aF-0.09323526918888092
aF0.07301351428031921
aF0.002418162301182747
aF-0.09216810762882233
aF-0.027890002354979515
aF-0.02399945817887783
aF0.07127159833908081
aF-0.09177354723215103
aF0.10867592692375183
aF-0.06360012292861938
aF-0.024777445942163467
aF0.027826596051454544
aF-0.018831050023436546
aF0.1630503237247467
aF0.05075566843152046
aF-0.10656282305717468
aF0.06617334485054016
aF0.060118287801742554
aF0.13158416748046875
aF-0.04248679429292679
aF-0.04055393487215042
aF0.05283799394965172
aF-0.022590382024645805
aF0.16693007946014404
aF-0.05463487654924393
aF0.025227027013897896
aF-0.07129619270563126
aF-0.015028622932732105
aF-0.06781264394521713
aF-0.2300097793340683
aF0.19452998042106628
aF-0.07608149200677872
aF-0.04323560371994972
aF-0.15298572182655334
aF-0.01364317536354065
aF0.029098721221089363
aF-0.07408537715673447
aF0.07063581794500351
aF0.08295799046754837
aF0.11101627349853516
aF0.20510949194431305
aF-0.04806677997112274
aF-0.015372860245406628
aF0.15707096457481384
aF0.01368818897753954
aF0.08720105141401291
aF-0.0801829919219017
aF-0.002258895430713892
aF0.016047954559326172
aF-0.06933756917715073
aF0.10874296724796295
aF-0.012553085573017597
aF0.025970472022891045
aF-0.10617371648550034
aF0.020666636526584625
aF-0.19618302583694458
aF0.16733308136463165
aF0.18303900957107544
aF-0.026978954672813416
aF0.04758552089333534
aa(lp38
F0.04923386126756668
aF-0.031461991369724274
aF0.17942118644714355
aF0.05395898222923279
aF0.11820957809686661
aF0.05483751371502876
aF-0.08109261840581894
aF-0.0662960410118103
aF-0.014251010492444038
aF-0.07597164809703827
aF0.12167177349328995
aF-0.060282010585069656
aF-0.004293627571314573
aF-0.027808262035250664
aF-0.14683924615383148
aF-0.05087219551205635
aF-0.014359379187226295
aF0.11389946192502975
aF0.11428237706422806
aF-0.09690099954605103
aF-0.06337078660726547
aF-0.16140903532505035
aF-0.09651637822389603
aF0.08391004055738449
aF0.14001987874507904
aF-0.05540682375431061
aF-0.15306861698627472
aF-0.09769333153963089
aF-0.20491255819797516
aF0.054800067096948624
aF0.07612300664186478
aF0.02748386189341545
aF0.0971548855304718
aF-0.11775138974189758
aF0.09210213273763657
aF0.1268342286348343
aF0.08647975325584412
aF0.05804050341248512
aF-0.04943958669900894
aF-0.07835882157087326
aF0.05726790055632591
aF0.09244410693645477
aF-0.1652146726846695
aF0.0015456686960533261
aF0.04435808211565018
aF0.0005827937857247889
aF0.0950043722987175
aF-0.11773679405450821
aF0.060866545885801315
aF0.05002136528491974
aF0.11174418032169342
aF-0.10839376598596573
aF-0.006697895471006632
aF0.014767268672585487
aF0.0872449204325676
aF-0.06773331016302109
aF0.13140961527824402
aF-0.02732774056494236
aF0.020281165838241577
aF-0.10378754884004593
aF0.05670976638793945
aF0.04198921471834183
aF0.08972762525081635
aF-0.029353000223636627
aF-0.12023884057998657
aF0.051509927958250046
aF0.10156825929880142
aF0.17261342704296112
aF-0.1375938057899475
aF-0.04048667103052139
aF0.08016791194677353
aF-0.04709024354815483
aF-0.06061877682805061
aF-0.10927797108888626
aF-0.11238408833742142
aF0.023586871102452278
aF0.045253168791532516
aF-0.019876476377248764
aF0.17608460783958435
aF0.08905305713415146
aF0.06037459149956703
aF-0.11226378381252289
aF-0.06274792551994324
aF0.0340648777782917
aF0.07597480714321136
aF-0.05186158046126366
aF-0.15582121908664703
aF0.08645043522119522
aF-0.0060356371104717255
aF0.12068478018045425
aF0.039047546684741974
aF-0.0893607810139656
aF0.12461905926465988
aF0.08030984550714493
aF0.05996125191450119
aF0.06402546167373657
aF0.04870223626494408
aF0.11937256157398224
aF0.008312050253152847
aF-0.05780497565865517
aF-0.11136601120233536
aF-0.11898370087146759
aF-0.04683838412165642
aF-0.06036372482776642
aF-0.04561116173863411
aF0.10640955716371536
aF-0.026757754385471344
aF0.0647038146853447
aF0.04455065354704857
aF-0.039470888674259186
aF0.14413796365261078
aF0.011873866431415081
aF-0.009010310284793377
aF0.04099540784955025
aF0.16742679476737976
aF-0.06660512089729309
aF0.017487090080976486
aF0.07160604000091553
aF-0.0833204984664917
aF-0.1371714174747467
aF-0.06224517896771431
aF0.02274460531771183
aF-0.004438083618879318
aF-0.06187262386083603
aF0.18178652226924896
aF0.023453954607248306
aF-0.00017466559074819088
aF-0.05683431401848793
aa(lp39
F-0.04596728831529617
aF0.11192551255226135
aF0.008175943046808243
aF-0.08722347766160965
aF-0.08867878466844559
aF-0.040611445903778076
aF-0.13527749478816986
aF0.03421896696090698
aF-0.014546884223818779
aF0.17426544427871704
aF0.03772389143705368
aF0.11732641607522964
aF0.09003005176782608
aF-0.06192934513092041
aF0.006565202958881855
aF0.11384553462266922
aF0.059964679181575775
aF-0.08618129789829254
aF0.10635591298341751
aF0.10971292108297348
aF0.050659310072660446
aF0.07134689390659332
aF0.16751910746097565
aF0.0747111365199089
aF-0.015813490375876427
aF0.12262171506881714
aF0.21040621399879456
aF0.10284439474344254
aF-0.13107506930828094
aF0.07849761098623276
aF-0.012915175408124924
aF0.03923184052109718
aF0.09459496289491653
aF0.044601909816265106
aF0.1167280524969101
aF-0.10489246249198914
aF-0.12947732210159302
aF0.07987209409475327
aF-0.09835052490234375
aF0.08450885862112045
aF-0.0820513442158699
aF-0.07981012016534805
aF0.14924274384975433
aF-0.04969858005642891
aF0.13713616132736206
aF0.0836654007434845
aF0.14410661160945892
aF0.08062254637479782
aF0.03380639851093292
aF-0.0606372095644474
aF0.06311339139938354
aF-0.0801054909825325
aF0.129718616604805
aF0.015230598859488964
aF-0.12920936942100525
aF0.09750255197286606
aF0.0008239874732680619
aF-0.09460142999887466
aF0.11912507563829422
aF0.1288253366947174
aF0.15298885107040405
aF-0.044429879635572433
aF0.10267596691846848
aF-0.12644170224666595
aF-0.027798835188150406
aF0.010115288197994232
aF-0.032066911458969116
aF-0.047262609004974365
aF-0.042550597339868546
aF-0.03063945099711418
aF-0.08029448240995407
aF0.06138155981898308
aF-0.024044791236519814
aF0.10533840209245682
aF0.01677130162715912
aF0.011125934310257435
aF-0.014785103499889374
aF0.024084217846393585
aF-0.09053457528352737
aF0.14547131955623627
aF-0.015518148429691792
aF0.09932426363229752
aF-0.12676464021205902
aF-0.038724590092897415
aF-0.13470569252967834
aF0.12410392612218857
aF-0.14157991111278534
aF-0.09374599158763885
aF0.1176743432879448
aF0.09730982035398483
aF0.06102148815989494
aF0.06805775314569473
aF-0.0672638788819313
aF0.03886066749691963
aF-0.01756907068192959
aF0.0898766815662384
aF0.0758887231349945
aF0.11184708029031754
aF-0.07748209685087204
aF-0.11376006156206131
aF-0.010367819108068943
aF-0.14603275060653687
aF0.0656283050775528
aF-0.0023122697602957487
aF0.12049604952335358
aF0.02063690312206745
aF0.04007502272725105
aF0.02459004521369934
aF-0.051863331347703934
aF-0.02952498570084572
aF0.09928520023822784
aF0.08537153899669647
aF-0.12726101279258728
aF-0.10846517980098724
aF0.030317069962620735
aF-0.11330337077379227
aF-0.07540123164653778
aF0.03762093186378479
aF-0.03995455056428909
aF0.008118522353470325
aF-0.12381599098443985
aF0.072595976293087
aF-0.0009701987146399915
aF-0.001859078067354858
aF0.04797375202178955
aF-0.05211188271641731
aF0.08966434001922607
aF0.10056235641241074
aa(lp40
F-0.1072462946176529
aF0.06822343170642853
aF-0.19286566972732544
aF0.05301692709326744
aF0.08301142603158951
aF0.04116819426417351
aF-0.05534530058503151
aF-0.007337305229157209
aF0.04256792739033699
aF0.04694834724068642
aF-0.09645161777734756
aF0.013241573236882687
aF-0.11645566672086716
aF0.10856305062770844
aF0.024446165189146996
aF0.1013307049870491
aF0.1101316511631012
aF0.08067391812801361
aF-0.007330044638365507
aF-0.12190049141645432
aF0.11389941722154617
aF0.09638253599405289
aF-0.007733236998319626
aF-0.08569230139255524
aF-0.2137802690267563
aF-0.036321911960840225
aF0.22710847854614258
aF-0.008022741414606571
aF-0.03583833575248718
aF0.16183194518089294
aF0.048163462430238724
aF-0.04467097669839859
aF-0.010957052931189537
aF-0.02600247412919998
aF0.05662570148706436
aF-0.0704951360821724
aF-0.08332892507314682
aF-0.11291785538196564
aF0.00916434545069933
aF0.15199589729309082
aF0.08011669665575027
aF-0.12547214329242706
aF-0.09697852283716202
aF0.065131276845932
aF0.09726370126008987
aF0.1233878955245018
aF0.03789133206009865
aF-0.034064244478940964
aF-0.035170167684555054
aF0.012309446930885315
aF0.10807214677333832
aF-0.05101703479886055
aF-0.04014451429247856
aF0.0453965999186039
aF0.06676633656024933
aF0.12404362857341766
aF-0.050099752843379974
aF-0.15587970614433289
aF0.023042267188429832
aF-0.05611710622906685
aF0.000683860678691417
aF-0.10721004754304886
aF-0.090445376932621
aF-0.025029847398400307
aF0.11287263035774231
aF0.13718505203723907
aF-0.06891876459121704
aF0.1215592622756958
aF0.04581877589225769
aF-0.1285763680934906
aF-0.04720121994614601
aF0.03427789732813835
aF-0.08436179161071777
aF0.08383908867835999
aF-0.055052317678928375
aF0.006570734083652496
aF0.025606658309698105
aF-0.07724516838788986
aF-0.11341305822134018
aF-0.08934091776609421
aF0.1335107684135437
aF0.016555970534682274
aF-0.06235864385962486
aF0.08806009590625763
aF-0.06332418322563171
aF0.09587275236845016
aF-0.09277327358722687
aF0.002322484040632844
aF-0.12326228618621826
aF-0.07629379630088806
aF0.07212698459625244
aF0.0974234789609909
aF-0.16086424887180328
aF-0.07871493697166443
aF0.09894672781229019
aF-0.04174382612109184
aF-0.10006947815418243
aF-0.1948474496603012
aF-0.13918276131153107
aF-0.11362563073635101
aF0.08422275632619858
aF0.11380454152822495
aF0.10885276645421982
aF0.014088152907788754
aF-0.12572111189365387
aF-0.02598574385046959
aF0.0034405747428536415
aF0.002768893726170063
aF-0.09625270962715149
aF-0.05744194984436035
aF-0.0996820405125618
aF-0.009267757646739483
aF-0.12714873254299164
aF-0.10976985841989517
aF-0.13115915656089783
aF-0.12630701065063477
aF-0.09582532197237015
aF-0.06372783333063126
aF0.0036863163113594055
aF-0.023081649094820023
aF0.009957673028111458
aF0.0092969611287117
aF0.052491746842861176
aF-0.03698495775461197
aF-0.016977759078145027
aF-0.02469664253294468
aF0.02488107420504093
aF-0.05222535878419876
aa(lp41
F-0.09174379706382751
aF-0.11119299381971359
aF0.027130529284477234
aF0.005115841049700975
aF-0.11638951301574707
aF-0.05914859101176262
aF-0.12832047045230865
aF-0.013405394740402699
aF-0.12688617408275604
aF0.10945641249418259
aF-0.0925002172589302
aF0.1279931366443634
aF-0.07364604622125626
aF-0.016023291274905205
aF-0.031266480684280396
aF0.013309966772794724
aF0.05062994360923767
aF0.14244858920574188
aF0.061335090547800064
aF-0.03997541964054108
aF0.03171129524707794
aF-0.00633255997672677
aF0.040229376405477524
aF-0.07132802903652191
aF0.11284478008747101
aF0.024877648800611496
aF0.17915526032447815
aF0.06470783054828644
aF0.07250205427408218
aF-0.09031633287668228
aF-0.10120747983455658
aF-0.0021000767592340708
aF-0.15923471748828888
aF-0.06446680426597595
aF-0.06333733350038528
aF-0.004888872150331736
aF-0.0472228117287159
aF0.09464481472969055
aF0.06452551484107971
aF0.09453698247671127
aF-0.014622855000197887
aF0.04438024014234543
aF0.008545763790607452
aF-0.11641385406255722
aF0.04464007914066315
aF0.08337288349866867
aF-0.0163714662194252
aF-0.03267959505319595
aF0.11139276623725891
aF-0.047510482370853424
aF-0.039954062551259995
aF-0.10847966372966766
aF0.08546298742294312
aF0.17432986199855804
aF0.11109986156225204
aF-0.09699132293462753
aF0.10936149954795837
aF-0.0036114186514168978
aF-0.05731358379125595
aF-0.029795153066515923
aF-0.02435442805290222
aF-0.14940056204795837
aF0.02145090512931347
aF-0.024931546300649643
aF0.039592280983924866
aF0.06134876608848572
aF-0.1082543432712555
aF-0.025037556886672974
aF0.14456453919410706
aF0.17892728745937347
aF0.017446938902139664
aF0.08457005769014359
aF-0.11856445670127869
aF0.10490638017654419
aF0.002030791714787483
aF-0.14690540730953217
aF0.04146796464920044
aF0.16288302838802338
aF0.05476865544915199
aF0.054998453706502914
aF0.08213923126459122
aF0.09465613961219788
aF-0.13593660295009613
aF-0.06071655452251434
aF-0.07315345108509064
aF0.10481206327676773
aF-0.017789233475923538
aF-0.15885819494724274
aF-0.010171829722821712
aF0.08636452257633209
aF0.042762286961078644
aF0.07062659412622452
aF0.06769931316375732
aF-0.05074770376086235
aF0.1433825045824051
aF-0.055448777973651886
aF-0.14305327832698822
aF0.08359129726886749
aF0.11589742451906204
aF-0.08664765954017639
aF0.1508924514055252
aF-0.052242644131183624
aF0.020024385303258896
aF0.0726580023765564
aF0.09317931532859802
aF-0.17096756398677826
aF-0.10706211626529694
aF-0.10414212942123413
aF0.04372265934944153
aF-0.13579878211021423
aF-0.10165249556303024
aF-0.037916574627161026
aF-0.045585747808218
aF-0.03417408466339111
aF0.12171563506126404
aF-0.053261276334524155
aF-0.020475102588534355
aF-0.04128827899694443
aF-0.05727345868945122
aF-0.11232050508260727
aF0.01569611392915249
aF-0.07345457375049591
aF-0.020414430648088455
aF-0.11888228356838226
aF0.13463473320007324
aF-0.15490327775478363
aF0.06929431110620499
aF-0.04752175882458687
aa(lp42
F-0.021001845598220825
aF-0.0013673243811354041
aF-0.13333123922348022
aF-0.03392019495368004
aF0.11898759752511978
aF-0.06327611953020096
aF-0.01506277360022068
aF0.30312082171440125
aF-0.13867470622062683
aF-0.10174748301506042
aF0.00701911048963666
aF0.10396062582731247
aF-0.049112483859062195
aF0.002202279632911086
aF-0.00890523474663496
aF-0.028249653056263924
aF0.003927139099687338
aF0.07294562458992004
aF-0.11679138988256454
aF0.002721980679780245
aF-0.011275016702711582
aF0.0429009273648262
aF0.1679251790046692
aF0.047330234199762344
aF0.11533591151237488
aF-0.012338872998952866
aF0.003123375354334712
aF0.0804927721619606
aF-0.20052149891853333
aF-0.02803461067378521
aF-0.025248559191823006
aF-0.025488004088401794
aF0.021725039929151535
aF-0.2383328527212143
aF-0.20746274292469025
aF0.03428611159324646
aF0.0272886473685503
aF0.06442023068666458
aF-0.021916525438427925
aF-0.150019109249115
aF-0.01493607647716999
aF-0.006182802841067314
aF-0.37234675884246826
aF-0.016356656327843666
aF-0.01663874462246895
aF-0.009093658067286015
aF0.02796211466193199
aF-0.015118412673473358
aF0.08453180640935898
aF0.04182757809758186
aF0.013776593841612339
aF-0.05955678969621658
aF0.025250205770134926
aF0.013688765466213226
aF-0.11059261858463287
aF0.0652373656630516
aF0.04903360828757286
aF-0.05829644203186035
aF-0.029741717502474785
aF0.1508154720067978
aF0.0654134526848793
aF0.07732725143432617
aF0.047630004584789276
aF0.039722342044115067
aF-0.08333578705787659
aF0.04476200044155121
aF0.12068761140108109
aF0.05204451456665993
aF0.0689200833439827
aF0.0727585032582283
aF-0.01822376437485218
aF0.0018020360730588436
aF-0.09926900267601013
aF-0.01796560361981392
aF-0.020400209352374077
aF0.05677984282374382
aF-0.1613461971282959
aF0.017994720488786697
aF-0.09796849638223648
aF-0.006765191443264484
aF-0.031950220465660095
aF-0.012471228837966919
aF-0.0426577664911747
aF0.05697307363152504
aF-0.03833586350083351
aF-0.10991957038640976
aF-0.09811679273843765
aF0.06944016367197037
aF0.04749203845858574
aF-0.057226184755563736
aF-0.05381372943520546
aF0.0042962366715073586
aF0.20185086131095886
aF0.02832302451133728
aF0.2583605945110321
aF0.00636354461312294
aF-0.017438285052776337
aF0.0035414155572652817
aF-0.03881228342652321
aF0.07346222549676895
aF-0.008056378923356533
aF-0.01041919831186533
aF-0.09086433053016663
aF-0.06235557049512863
aF0.05352870002388954
aF0.06520736962556839
aF-0.005571339279413223
aF0.034705836325883865
aF-0.05654899403452873
aF0.010335679166018963
aF0.0984528660774231
aF-0.0238659530878067
aF0.0015297424979507923
aF-0.09126734733581543
aF0.12636420130729675
aF-0.07791353017091751
aF0.16376569867134094
aF-0.018946977332234383
aF0.03488531336188316
aF-0.0527157187461853
aF-0.08224513381719589
aF-0.059254322201013565
aF0.004742237739264965
aF0.016349395737051964
aF0.010477587580680847
aF-0.014708079397678375
aF0.134689062833786
aF-0.0116622569039464
aa(lp43
F0.15608060359954834
aF-0.014002389274537563
aF0.09167542308568954
aF-0.016466744244098663
aF0.05195373296737671
aF-0.06692802160978317
aF-0.009833772666752338
aF0.15260782837867737
aF-0.05075414478778839
aF-0.02045859955251217
aF0.053167957812547684
aF-0.015223164111375809
aF0.03918119892477989
aF0.05806178227066994
aF0.12799184024333954
aF0.06588281691074371
aF-0.08491545170545578
aF-0.13620798289775848
aF-0.018636232241988182
aF-0.012886092998087406
aF-0.011611257679760456
aF-0.1557074934244156
aF-0.16215893626213074
aF0.014073710888624191
aF-0.07716724276542664
aF0.00032970565371215343
aF-0.15874546766281128
aF-0.06336969137191772
aF-0.07915722578763962
aF0.12636539340019226
aF0.0993628203868866
aF-0.06085590273141861
aF-0.08857476711273193
aF0.09057033807039261
aF0.11740762740373611
aF-0.09930887073278427
aF0.0419699028134346
aF-0.02456407994031906
aF0.16106121242046356
aF0.009802472777664661
aF-0.12465614080429077
aF0.17644180357456207
aF-0.17157764732837677
aF0.09574311971664429
aF0.04444892331957817
aF-0.07873056083917618
aF-0.020069709047675133
aF-0.0009957917500287294
aF-0.001522720791399479
aF-0.048643846064805984
aF0.06836730241775513
aF0.02071615308523178
aF0.14447249472141266
aF0.08847631514072418
aF0.01574179343879223
aF0.010556494817137718
aF0.019663717597723007
aF-0.06722757965326309
aF0.1286674439907074
aF-0.04754497483372688
aF-0.0775705873966217
aF0.05600477010011673
aF-0.07147974520921707
aF0.14229626953601837
aF-0.025145571678876877
aF-0.13777457177639008
aF-0.06710510700941086
aF-0.06712443381547928
aF-0.05963357910513878
aF-0.06957574188709259
aF-0.04279329627752304
aF0.06650267541408539
aF-0.11982080340385437
aF-0.08594948053359985
aF-0.0745444968342781
aF0.03601992130279541
aF-0.10506678372621536
aF-0.009060033597052097
aF-0.037369873374700546
aF0.11789635568857193
aF0.016868777573108673
aF-0.05827662721276283
aF0.022596213966608047
aF-0.08167778700590134
aF0.13930729031562805
aF-0.037655308842659
aF0.024337705224752426
aF0.08505532145500183
aF-0.15975183248519897
aF-0.07458952069282532
aF0.19576147198677063
aF0.02667553722858429
aF-0.0727752149105072
aF-0.12235008180141449
aF0.019216228276491165
aF-0.06450609117746353
aF-0.05102231353521347
aF-0.008986766450107098
aF0.08861911296844482
aF0.014400954358279705
aF-0.004804522264748812
aF0.1954525262117386
aF-0.01820441335439682
aF-0.03541859611868858
aF0.008122079074382782
aF-0.10413359850645065
aF0.1507546752691269
aF0.15911029279232025
aF0.043568167835474014
aF0.07466045022010803
aF0.05883091315627098
aF-0.05638999864459038
aF-0.027304699644446373
aF0.1352761834859848
aF0.11527324467897415
aF-0.08061284571886063
aF0.10757414996623993
aF-0.05431118607521057
aF-0.10849302262067795
aF-0.1472887396812439
aF0.043663859367370605
aF0.1318773329257965
aF-0.16888174414634705
aF0.018315177410840988
aF-0.0038654087111353874
aF0.06747576594352722
aF-0.05891551077365875
aF-0.017967436462640762
aa(lp44
F0.008694897405803204
aF-0.00986384879797697
aF0.0640258714556694
aF-0.034956883639097214
aF-0.1272495985031128
aF0.08227432519197464
aF-0.10028388351202011
aF0.0726039782166481
aF-0.1635742336511612
aF0.026928942650556564
aF0.044306863099336624
aF0.08160939067602158
aF0.06479518115520477
aF0.09524130821228027
aF0.048707351088523865
aF-0.05443531647324562
aF-0.027866611257195473
aF0.07091528177261353
aF0.02425381913781166
aF-0.017929764464497566
aF-0.006074691656976938
aF0.06984692811965942
aF0.12589986622333527
aF0.050613731145858765
aF0.16482913494110107
aF0.0856737568974495
aF0.03411974385380745
aF0.14709186553955078
aF0.17101196944713593
aF-0.11596900224685669
aF0.02870086394250393
aF0.13042093813419342
aF-0.14712528884410858
aF-0.10998374968767166
aF-0.14547483623027802
aF0.0404772087931633
aF0.004021674394607544
aF0.025218237191438675
aF-0.02489989437162876
aF0.05979310721158981
aF0.09800755977630615
aF0.06441675871610641
aF0.08354319632053375
aF-0.0065898229368031025
aF-0.007045285776257515
aF0.030202236026525497
aF-0.036912597715854645
aF0.08304639905691147
aF0.039765145629644394
aF0.07323679327964783
aF-0.03818493336439133
aF-0.18273605406284332
aF0.10341775417327881
aF0.05435017868876457
aF-0.09400638192892075
aF-0.10873133689165115
aF0.08926231414079666
aF-0.11185602098703384
aF-0.005457371938973665
aF0.1315990537405014
aF0.09633052349090576
aF0.07501329481601715
aF0.1420147567987442
aF-0.026739370077848434
aF0.16083501279354095
aF0.15688280761241913
aF-0.03449876233935356
aF-0.06088609993457794
aF0.19470053911209106
aF0.028487732633948326
aF0.05573179945349693
aF0.0056565748527646065
aF0.024235045537352562
aF0.0825200304389
aF-0.04684658721089363
aF-0.08115333318710327
aF0.10782857239246368
aF0.04658905416727066
aF-0.11102135479450226
aF-0.015786636620759964
aF0.12055346369743347
aF-0.05210039019584656
aF-0.05009612813591957
aF-0.07289247214794159
aF0.056882601231336594
aF-0.09263063967227936
aF-0.1027912050485611
aF0.004703990183770657
aF0.12893010675907135
aF-0.11449883878231049
aF-0.22063501179218292
aF0.05473858863115311
aF0.015930183231830597
aF0.1251840442419052
aF0.16335931420326233
aF0.15131032466888428
aF-0.11060870438814163
aF0.10147382318973541
aF0.09100774675607681
aF-0.06022709608078003
aF-0.06402920186519623
aF-0.049738962203264236
aF-0.02666834555566311
aF-0.04370579123497009
aF0.08933713287115097
aF-0.04844443500041962
aF-0.04925446957349777
aF-0.016581805422902107
aF0.012340068817138672
aF-0.1278327852487564
aF-0.14439189434051514
aF-0.09730049967765808
aF-0.0269650686532259
aF0.0012995268916711211
aF0.13562420010566711
aF0.0883016586303711
aF-0.05062199756503105
aF0.06513626128435135
aF-0.1059814840555191
aF-0.0666966512799263
aF0.06441012024879456
aF-0.0055977278389036655
aF0.040767889469861984
aF-0.09367944300174713
aF-0.07815752178430557
aF-0.0005951476050540805
aF-0.04985242336988449
aF-0.04741145297884941
aa(lp45
F0.11910352110862732
aF0.1125529482960701
aF0.09170334786176682
aF-0.1408635377883911
aF-0.05725046992301941
aF-0.02945319004356861
aF0.07166861742734909
aF0.15528567135334015
aF-0.0103449122980237
aF-0.10599321871995926
aF-0.0445193350315094
aF-0.02498668059706688
aF-0.13446544110774994
aF-0.03540146350860596
aF0.1818550080060959
aF-0.06251119077205658
aF-0.11950582265853882
aF-0.04385670647025108
aF-0.0699186697602272
aF-0.04095286503434181
aF0.12873892486095428
aF0.10225077718496323
aF-0.052055805921554565
aF0.021550487726926804
aF0.10334097594022751
aF0.07069765031337738
aF0.006199803669005632
aF0.010327099822461605
aF-0.05934523791074753
aF0.21599362790584564
aF0.07249841839075089
aF-0.03192335367202759
aF0.119326651096344
aF-0.03679562732577324
aF-0.04645724594593048
aF-0.0741727277636528
aF0.0018085540505126119
aF-0.05065995827317238
aF0.13077495992183685
aF0.0929490476846695
aF-0.16697117686271667
aF-0.07236704230308533
aF0.0331871323287487
aF0.05710101127624512
aF-0.059526942670345306
aF-0.0008943938883021474
aF-0.0006424819584935904
aF0.054414570331573486
aF-0.15358136594295502
aF-0.16084668040275574
aF0.12254589051008224
aF0.09815230965614319
aF0.05899006128311157
aF-0.04295504465699196
aF0.01425525639206171
aF-0.08991636335849762
aF-0.13440759479999542
aF-0.012913288548588753
aF0.10727835446596146
aF0.17648568749427795
aF-0.005218950100243092
aF-0.08488458395004272
aF0.11249417811632156
aF0.1667289286851883
aF-0.04269538074731827
aF0.030170101672410965
aF-0.05945262685418129
aF-0.10326425731182098
aF0.0456441231071949
aF-0.06619507074356079
aF-0.023732177913188934
aF0.07589905709028244
aF-0.040764208883047104
aF0.07164131104946136
aF0.0334504172205925
aF-0.004796482156962156
aF-0.13589398562908173
aF0.09175071865320206
aF0.13721580803394318
aF0.07461177557706833
aF-0.01683732308447361
aF-0.11929000169038773
aF-0.11604272574186325
aF0.0963175818324089
aF-0.060390401631593704
aF-0.007338913157582283
aF0.11704345792531967
aF-0.0707857757806778
aF0.03302571177482605
aF-0.049188125878572464
aF0.0027076660189777613
aF0.029688330367207527
aF-0.01972644217312336
aF0.05337316170334816
aF0.0405937097966671
aF0.05877101421356201
aF-0.11263003200292587
aF-0.051713403314352036
aF-0.005629181861877441
aF0.08728216588497162
aF0.06256420910358429
aF0.13801108300685883
aF0.17103199660778046
aF-0.10274408757686615
aF0.05699222534894943
aF-0.0599970743060112
aF0.13071614503860474
aF0.050619035959243774
aF-0.10796941071748734
aF0.06857623904943466
aF0.015758749097585678
aF-0.0022804485633969307
aF-0.11739041656255722
aF0.11440902948379517
aF-0.08018264174461365
aF0.08491352200508118
aF0.16271701455116272
aF0.013705008663237095
aF-0.13714519143104553
aF-0.00745726004242897
aF-0.0065367212519049644
aF0.05088549107313156
aF5.243195846560411e-05
aF0.17654919624328613
aF-0.012995644472539425
aF0.0522017776966095
aF-0.02102554589509964
aF0.10362020879983902
aa(lp46
F-0.02065129764378071
aF-0.08038182556629181
aF-0.13606244325637817
aF-0.1265425831079483
aF-0.03453955799341202
aF0.0016882260097190738
aF-0.10965156555175781
aF-0.08851649612188339
aF0.04694385826587677
aF-0.037289418280124664
aF0.10910137742757797
aF0.10718217492103577
aF-0.11219831556081772
aF-0.054139748215675354
aF-0.032785385847091675
aF0.0446140319108963
aF0.07206425070762634
aF-0.039718352258205414
aF0.0031562214717268944
aF-0.08602169156074524
aF-0.04343055188655853
aF-0.0014539116527885199
aF0.11949768662452698
aF-0.04792775958776474
aF-0.05894961953163147
aF-0.04417857900261879
aF-0.1506287157535553
aF0.0640883520245552
aF-0.019022248685359955
aF0.07408300787210464
aF0.041054580360651016
aF0.01631252095103264
aF0.09234992414712906
aF0.11771658062934875
aF-0.0702979639172554
aF-0.02381061017513275
aF-0.08447624742984772
aF-0.002100714948028326
aF0.05139309540390968
aF0.26952090859413147
aF-0.030999312177300453
aF-0.1161271408200264
aF0.017164386808872223
aF-0.0013797329738736153
aF0.13847878575325012
aF0.18610206246376038
aF0.15890024602413177
aF0.04559171944856644
aF-0.057969965040683746
aF-0.06946771591901779
aF0.006055704317986965
aF-0.02050933614373207
aF0.015000734478235245
aF-0.06337809562683105
aF-0.12372200191020966
aF0.039768610149621964
aF-0.10369700938463211
aF-0.1335383504629135
aF0.034545812755823135
aF0.013927645981311798
aF-0.038512587547302246
aF-0.09754735976457596
aF0.02505052275955677
aF-0.02691918984055519
aF-0.0274653322994709
aF-0.044855255633592606
aF-0.007671696599572897
aF-0.00838280376046896
aF0.04165313020348549
aF0.020089030265808105
aF0.01852996088564396
aF-0.02396111749112606
aF0.026265496388077736
aF0.10454443097114563
aF0.04735368490219116
aF0.056309256702661514
aF0.04856213182210922
aF-0.04051129147410393
aF0.050298791378736496
aF0.052719298750162125
aF-0.0870748832821846
aF0.026615815237164497
aF-0.0340956412255764
aF-0.21069803833961487
aF-0.03557325899600983
aF-0.05591626092791557
aF0.15177617967128754
aF-0.021441685035824776
aF-0.09824728220701218
aF0.00365063245408237
aF-0.08021597564220428
aF0.0038010261487215757
aF-0.1454014629125595
aF-0.1311488002538681
aF0.05917006731033325
aF0.07981231808662415
aF-0.16147172451019287
aF-0.16628530621528625
aF0.12773557007312775
aF-0.07765430957078934
aF0.009586370550096035
aF-0.004586553201079369
aF-0.06290600448846817
aF0.11137177795171738
aF0.014766944572329521
aF0.17456425726413727
aF-0.06867418438196182
aF0.11953768879175186
aF0.027264436706900597
aF-0.15230059623718262
aF-0.16335125267505646
aF0.08302526921033859
aF0.002945785643532872
aF-0.15146315097808838
aF-0.1420304775238037
aF0.1904737502336502
aF-0.010056677274405956
aF-0.024087218567728996
aF0.017196204513311386
aF0.06999713182449341
aF-0.01651730388402939
aF-0.013442105613648891
aF-0.06177474185824394
aF-0.2186657041311264
aF0.05637544021010399
aF-0.04458293691277504
aF0.14050057530403137
aF-0.02476937510073185
aa(lp47
F-0.037700895220041275
aF-0.049059245735406876
aF-0.0961700975894928
aF-0.10431404411792755
aF0.09768423438072205
aF0.1103888750076294
aF0.10758939385414124
aF-0.04018354043364525
aF0.03174348548054695
aF0.08597761392593384
aF-0.12243985384702682
aF-0.11040657013654709
aF0.06171557679772377
aF-0.0945841446518898
aF-0.029481323435902596
aF-0.026604248210787773
aF0.11255495995283127
aF0.04901629313826561
aF-0.11211942881345749
aF-0.0877467468380928
aF-0.07755910605192184
aF0.01788509078323841
aF0.06497355550527573
aF0.024968810379505157
aF-0.03966956585645676
aF-0.006983787752687931
aF0.14267128705978394
aF-0.1355627477169037
aF-0.019691744819283485
aF0.08374238759279251
aF0.008711805567145348
aF-0.023645557463169098
aF0.08673069626092911
aF-0.033217377960681915
aF0.09504960477352142
aF0.06732470542192459
aF0.061727382242679596
aF-0.2222757488489151
aF-0.11111027002334595
aF-0.011399488896131516
aF-0.007217084523290396
aF-0.07984573394060135
aF-0.053463127464056015
aF-0.10158491134643555
aF-0.05190948769450188
aF-0.028250323608517647
aF0.01152546051889658
aF0.09030422568321228
aF0.002610794035717845
aF-0.1540091633796692
aF0.09578745067119598
aF0.043502092361450195
aF0.031723301857709885
aF0.07083310931921005
aF0.044240422546863556
aF0.011766953393816948
aF0.08900364488363266
aF-0.03251396864652634
aF0.07483750581741333
aF-0.14027494192123413
aF0.10006926208734512
aF-0.0803804025053978
aF-0.001605773693881929
aF-0.07282765954732895
aF0.0517636276781559
aF-0.006829040590673685
aF-0.10427816212177277
aF-0.030375076457858086
aF0.02845536731183529
aF-0.07676190882921219
aF0.07094011455774307
aF0.012676460668444633
aF0.1700184941291809
aF0.10894973576068878
aF-0.008611883968114853
aF-0.03591010719537735
aF0.055558156222105026
aF-0.16313612461090088
aF-0.0611613392829895
aF-0.09625274688005447
aF0.16201670467853546
aF0.049129243940114975
aF0.07973876595497131
aF-0.03785981237888336
aF0.019926035776734352
aF-0.0801163911819458
aF0.025298533961176872
aF-0.005198201630264521
aF0.02771684154868126
aF0.14588648080825806
aF0.13981278240680695
aF-0.16477611660957336
aF0.06014716625213623
aF-0.05360613763332367
aF-0.12253119796514511
aF-0.0719326063990593
aF0.043344877660274506
aF-0.09684166312217712
aF-0.1646740883588791
aF0.036209918558597565
aF0.10183098167181015
aF0.2586918771266937
aF0.06768889725208282
aF0.09730260819196701
aF-0.1771235466003418
aF-0.0003171573916915804
aF-0.05761409178376198
aF-0.01771661639213562
aF0.12186171859502792
aF0.08811620622873306
aF0.1362849473953247
aF-0.04652648791670799
aF-0.1162705346941948
aF-0.003240943420678377
aF-0.13780830800533295
aF0.05180543661117554
aF0.005791380535811186
aF0.040360938757658005
aF-0.08622261136770248
aF-0.0157743152230978
aF-0.1008453369140625
aF-0.04685581848025322
aF-0.039814017713069916
aF-0.006316257640719414
aF-0.22151853144168854
aF0.0847405344247818
aF0.0010906904935836792
aF-0.057176198810338974
aa(lp48
F-0.042045678943395615
aF-0.07591128349304199
aF-0.11228261142969131
aF0.07644229382276535
aF0.18011561036109924
aF0.0658431351184845
aF-0.02209974080324173
aF0.08364088833332062
aF0.0185959804803133
aF0.08807696402072906
aF0.03383689746260643
aF0.07163281738758087
aF-0.030728932470083237
aF0.026989197358489037
aF-0.13010509312152863
aF0.07979882508516312
aF0.013859876431524754
aF0.07792870700359344
aF0.09008952230215073
aF-0.06310159713029861
aF0.016290128231048584
aF-0.002352142706513405
aF-0.09773135185241699
aF-0.09531707316637039
aF-0.0802297592163086
aF0.06457158923149109
aF0.0635211244225502
aF-0.06453755497932434
aF-0.1072913259267807
aF0.03982480242848396
aF-0.00916090328246355
aF0.08799771219491959
aF-0.05068628117442131
aF0.021022580564022064
aF-0.08041763305664062
aF0.012523499317467213
aF0.11003487557172775
aF-0.21324533224105835
aF-0.12099336832761765
aF0.04589376598596573
aF0.08870642632246017
aF-0.05382261052727699
aF-0.1338951736688614
aF-0.01336621679365635
aF-0.09819119423627853
aF0.10053887218236923
aF-0.09506818652153015
aF-0.0014519949909299612
aF-0.007828754372894764
aF-0.02700497768819332
aF0.11309197545051575
aF-0.03501565754413605
aF0.08433257043361664
aF0.07864972203969955
aF0.05294220522046089
aF-0.0022559217177331448
aF0.1373412162065506
aF-0.09120114892721176
aF0.08529075235128403
aF0.0362246036529541
aF0.12425463646650314
aF0.03398073837161064
aF-0.11284295469522476
aF0.05774344131350517
aF0.2059786170721054
aF-0.11477866023778915
aF-0.09169718623161316
aF0.16333255171775818
aF0.03864007070660591
aF0.08413844555616379
aF-0.004745420999825001
aF0.14621815085411072
aF0.16896091401576996
aF0.013710619881749153
aF0.008970718830823898
aF-0.04492233693599701
aF0.01595611870288849
aF0.0008104525040835142
aF-0.16768500208854675
aF-0.031860869377851486
aF0.11397034674882889
aF-0.056942351162433624
aF0.14928007125854492
aF-0.08959454298019409
aF0.1569276750087738
aF0.11694110929965973
aF-0.14992952346801758
aF-0.06173435226082802
aF-0.14847826957702637
aF0.10212724655866623
aF0.10476842522621155
aF-0.045392826199531555
aF-0.032602954655885696
aF-0.0035810598637908697
aF-0.063531793653965
aF-0.0274752676486969
aF-0.003988364711403847
aF-0.03989986330270767
aF-0.12664344906806946
aF-0.0016397972358390689
aF0.028619006276130676
aF0.19843323528766632
aF-0.02362653985619545
aF-0.039229489862918854
aF-0.1660877913236618
aF-0.11138688772916794
aF0.06494258344173431
aF-0.07397052645683289
aF-0.019293583929538727
aF0.003439473919570446
aF0.05095888674259186
aF-0.071247898042202
aF0.08456160873174667
aF-0.08874701708555222
aF-0.053630851209163666
aF-0.1365644335746765
aF0.015301849693059921
aF0.03004751168191433
aF0.04820260778069496
aF-0.10343464463949203
aF-0.035835444927215576
aF0.019057244062423706
aF0.06688760966062546
aF0.05501294881105423
aF-0.1514272540807724
aF0.15172842144966125
aF-0.038264427334070206
aF-0.06394664198160172
aa(lp49
F0.03495960310101509
aF0.05582296475768089
aF0.10052213817834854
aF0.019829748198390007
aF-0.06505076587200165
aF0.07589247077703476
aF0.007638618350028992
aF-0.12117940187454224
aF0.044381026178598404
aF-0.109200119972229
aF-0.13593487441539764
aF0.10638496279716492
aF0.08389674127101898
aF-0.011214843951165676
aF0.0896093100309372
aF0.028948452323675156
aF0.028703322634100914
aF-0.05708490312099457
aF-0.05106683820486069
aF0.035186223685741425
aF0.07067086547613144
aF-0.037387777119874954
aF0.11571315675973892
aF0.0619831308722496
aF0.05712512880563736
aF0.12004944682121277
aF0.008867032825946808
aF0.058286525309085846
aF0.06045062094926834
aF0.12346115708351135
aF0.09523524343967438
aF0.044224172830581665
aF0.11151044815778732
aF-0.003968643955886364
aF0.02453909069299698
aF-0.11227134615182877
aF0.0023797107860445976
aF0.004500959068536758
aF-0.08650540560483932
aF-0.13112060725688934
aF0.04750393331050873
aF0.048060692846775055
aF0.09302220493555069
aF0.09604305028915405
aF0.008461353369057178
aF0.09479182213544846
aF0.017222894355654716
aF-0.17311599850654602
aF0.03923826664686203
aF0.06417015194892883
aF-0.09216243028640747
aF0.10714127123355865
aF0.02463333122432232
aF0.0050652059726417065
aF-0.1382479965686798
aF-0.0031032240949571133
aF0.04836195707321167
aF-0.09786160290241241
aF0.005413055885583162
aF-0.09919887036085129
aF0.010233703069388866
aF-0.10568553954362869
aF-0.17899301648139954
aF-0.025684967637062073
aF0.08853990584611893
aF0.10124494880437851
aF-0.226036936044693
aF0.04723396524786949
aF0.15060415863990784
aF0.03580446168780327
aF-0.08843066543340683
aF-0.04533948749303818
aF-0.028493043035268784
aF0.12487692385911942
aF-0.014042098075151443
aF0.06360665708780289
aF-0.0033901177812367678
aF0.0002458026574458927
aF-0.02690114639699459
aF0.03236778452992439
aF0.07360152900218964
aF0.09553808718919754
aF0.07575494050979614
aF-0.11903370916843414
aF-0.07511784136295319
aF-0.1595691293478012
aF0.24368718266487122
aF-0.11776789277791977
aF-0.060386791825294495
aF-0.102939672768116
aF-0.0805434063076973
aF0.0017239995067939162
aF0.08300065994262695
aF-0.02974550612270832
aF-0.07020870596170425
aF0.048119403421878815
aF-0.031235478818416595
aF-0.11954823136329651
aF-0.03521118313074112
aF0.033212363719940186
aF-0.01663498394191265
aF-0.07022113353013992
aF0.10561307519674301
aF-0.1341511458158493
aF-0.006593102123588324
aF0.07975097000598907
aF-0.14594529569149017
aF-0.0622769258916378
aF-0.15547409653663635
aF0.06813641637563705
aF0.03743861988186836
aF-0.0036843596026301384
aF0.022109519690275192
aF-0.212806835770607
aF0.0669393390417099
aF-0.020208314061164856
aF-0.06038890406489372
aF-0.12164125591516495
aF0.13841958343982697
aF0.2005070596933365
aF0.007836535573005676
aF0.034957967698574066
aF-0.0910278856754303
aF0.06895950436592102
aF0.02765846624970436
aF-0.06826388835906982
aF0.17481917142868042
aF-0.0012537561124190688
aa(lp50
F0.12068887054920197
aF0.06939574331045151
aF0.013152875937521458
aF-0.0002662171027623117
aF0.08908844739198685
aF-0.10546308010816574
aF-0.08681060373783112
aF-0.0711522176861763
aF0.023664575070142746
aF-0.018025130033493042
aF0.015521492809057236
aF0.06675130128860474
aF0.001992991892620921
aF0.14962318539619446
aF-0.08279160410165787
aF-0.037150491029024124
aF-0.09755167365074158
aF-0.04679146036505699
aF-0.0006083775660954416
aF0.02817455865442753
aF-0.17522375285625458
aF0.05096353963017464
aF0.07976753264665604
aF0.07845557481050491
aF-0.0019013494020327926
aF0.07640349119901657
aF-0.0800362080335617
aF-0.0044034915044903755
aF-0.023391295224428177
aF0.05717705190181732
aF0.05664869397878647
aF0.09649448841810226
aF-0.05609690397977829
aF0.128461554646492
aF-0.183324933052063
aF-0.1141369491815567
aF0.06539557874202728
aF0.0873384028673172
aF-0.06088124215602875
aF0.05588690564036369
aF-0.026905778795480728
aF-0.013922207988798618
aF0.051930561661720276
aF-0.0896262377500534
aF-0.13800562918186188
aF0.06962601095438004
aF-0.025298286229372025
aF-0.07683399319648743
aF0.11677101999521255
aF0.14347340166568756
aF0.10741566121578217
aF0.08475667238235474
aF-0.0054105655290186405
aF-0.000840124033857137
aF-0.11148715764284134
aF-0.021444454789161682
aF-0.012188510037958622
aF0.026660658419132233
aF-0.11470571160316467
aF0.054550815373659134
aF-0.031578078866004944
aF0.1190594881772995
aF-0.11884958297014236
aF-0.10885370522737503
aF0.16024626791477203
aF-0.04717671126127243
aF0.01685997284948826
aF-0.15288402140140533
aF-0.17908638715744019
aF-0.046068087220191956
aF-0.05435457080602646
aF0.062205199152231216
aF-0.12691277265548706
aF0.020589705556631088
aF0.09180992096662521
aF-0.12657895684242249
aF0.1563311219215393
aF0.11605720221996307
aF0.07047834992408752
aF-0.05819641798734665
aF0.05831373110413551
aF0.09995551407337189
aF0.09101910889148712
aF0.02293274737894535
aF-0.06884399801492691
aF-0.06322459876537323
aF-0.03936213254928589
aF-0.09732627868652344
aF-0.05331898480653763
aF-0.0102327736094594
aF0.15999530255794525
aF-0.0007753813406452537
aF0.012168241664767265
aF-0.02765205129981041
aF-0.08687232434749603
aF-0.12426281720399857
aF0.03347822651267052
aF0.05572909116744995
aF-0.11944205313920975
aF0.1370275914669037
aF0.08648999035358429
aF-0.02494926191866398
aF0.12656381726264954
aF0.09656849503517151
aF-0.141645610332489
aF-0.05975794419646263
aF-0.008875252678990364
aF0.16987301409244537
aF-0.15106989443302155
aF-0.14482344686985016
aF0.0574236661195755
aF0.1591642051935196
aF-0.15234379470348358
aF0.02561066672205925
aF0.06902212649583817
aF0.03479995205998421
aF0.018069330602884293
aF0.09246033430099487
aF0.10075898468494415
aF-0.08220023661851883
aF-0.02864157408475876
aF-0.13595212996006012
aF0.02556999959051609
aF0.09614506363868713
aF-0.0275113508105278
aF-0.12377934157848358
aF-0.060412775725126266
aF-0.007445135153830051
aa(lp51
F0.0437658466398716
aF0.04478958994150162
aF0.0709538608789444
aF0.05904984474182129
aF-0.015875954180955887
aF-0.09298352897167206
aF0.11199397593736649
aF-0.06620289385318756
aF0.045083533972501755
aF0.023253051564097404
aF0.11910597234964371
aF-0.07997631281614304
aF0.0338638536632061
aF0.07807014137506485
aF-0.08681631833314896
aF0.03325565531849861
aF-0.002283951733261347
aF-0.007554212585091591
aF-0.11799689382314682
aF-0.005338299088180065
aF-0.09376127272844315
aF0.11998084932565689
aF-0.08402250707149506
aF0.1102289929986
aF-0.0020832528825849295
aF0.002609376795589924
aF-0.17531535029411316
aF0.07351190596818924
aF-0.10614028573036194
aF-0.19268935918807983
aF0.016691310331225395
aF0.13744045794010162
aF-0.0957937091588974
aF-0.010909220203757286
aF0.048331134021282196
aF0.14177212119102478
aF-0.019446274265646935
aF-0.012140020728111267
aF0.10856667160987854
aF0.07753375917673111
aF0.03345615044236183
aF-0.05219792574644089
aF-0.00568820396438241
aF-0.03584267571568489
aF-0.06721794605255127
aF0.0418843999505043
aF-0.0373832993209362
aF0.06199144944548607
aF0.14055445790290833
aF0.020333420485258102
aF0.1412723809480667
aF-0.1065792441368103
aF0.12046083807945251
aF0.02703172154724598
aF0.0020086204167455435
aF0.10607559978961945
aF0.10211803019046783
aF0.06977406144142151
aF-0.056119028478860855
aF-0.11650321632623672
aF-0.061870694160461426
aF0.09977863729000092
aF-0.01757693476974964
aF-0.03530339524149895
aF-0.1905152052640915
aF0.00988618191331625
aF0.08361520618200302
aF0.0610484853386879
aF0.10239795595407486
aF0.04099796339869499
aF-0.05397944152355194
aF-0.11860381811857224
aF0.06789826601743698
aF0.08552812784910202
aF-0.023548968136310577
aF-0.07576845586299896
aF0.09539031982421875
aF0.13414674997329712
aF0.06775415688753128
aF0.09195876866579056
aF-0.07947826385498047
aF0.1539851278066635
aF0.09606342017650604
aF0.004802050534635782
aF0.11407088488340378
aF-0.08381590247154236
aF-0.11056676506996155
aF0.1364489495754242
aF0.010102194733917713
aF0.013836362399160862
aF0.08251873403787613
aF0.11697972565889359
aF0.015022794716060162
aF-0.03989190235733986
aF-0.005685251206159592
aF0.06324492394924164
aF0.08040602505207062
aF0.018965009599924088
aF0.1357453614473343
aF-0.18062305450439453
aF0.0817820355296135
aF-0.13867439329624176
aF0.025263525545597076
aF0.1449073851108551
aF0.022446775808930397
aF0.14264267683029175
aF-0.12180140614509583
aF0.10976585745811462
aF0.062393203377723694
aF-0.13585738837718964
aF-0.13074347376823425
aF-0.020780304446816444
aF0.03954693302512169
aF0.014277569949626923
aF0.2512969374656677
aF0.015768911689519882
aF0.013010424561798573
aF0.017522811889648438
aF0.03612766042351723
aF-0.02473796159029007
aF0.03290553763508797
aF-0.08639787137508392
aF-0.1424248218536377
aF-0.06965643912553787
aF0.012851801700890064
aF-0.06833057850599289
aF-0.13828915357589722
aF0.02891082689166069
aa(lp52
F0.07169533520936966
aF0.1489185094833374
aF-0.18206137418746948
aF0.1864791214466095
aF0.14043718576431274
aF-0.05451836436986923
aF-0.009057902731001377
aF-0.11399241536855698
aF0.051365096122026443
aF0.10771657526493073
aF0.07261570543050766
aF0.058368388563394547
aF0.05987570062279701
aF-0.01082777138799429
aF0.09779715538024902
aF-0.15421175956726074
aF-0.048653494566679
aF-0.1291852593421936
aF-0.08536113053560257
aF-0.10014094412326813
aF-0.008350632153451443
aF-0.08402010053396225
aF-0.1902417242527008
aF0.10515772551298141
aF0.11924587935209274
aF0.05920743942260742
aF0.0509289875626564
aF0.05329056829214096
aF0.021411729976534843
aF-0.09902746230363846
aF0.007918164134025574
aF-0.042145807296037674
aF0.0017834139289334416
aF-0.16735249757766724
aF-0.13288970291614532
aF-0.1321823000907898
aF-0.07923123985528946
aF-0.017346343025565147
aF0.09150621294975281
aF-0.07983772456645966
aF-0.1026681438088417
aF-0.03862937539815903
aF-0.0016634241910651326
aF0.021592658013105392
aF0.031637564301490784
aF0.06338834017515182
aF0.015361073426902294
aF-0.019226577132940292
aF-0.11051854491233826
aF0.09237215667963028
aF-0.023716779425740242
aF0.03941228613257408
aF0.08237839490175247
aF-0.029379189014434814
aF0.06806007772684097
aF-0.10057339817285538
aF0.08369610458612442
aF0.08015896379947662
aF0.006009024102240801
aF-0.08790871500968933
aF0.03619229793548584
aF0.058620620518922806
aF-0.07249680906534195
aF0.13182415068149567
aF0.09487873315811157
aF0.1470060646533966
aF-0.008569786325097084
aF-0.06275446712970734
aF-0.12225691974163055
aF-0.11476024985313416
aF-0.05807330831885338
aF-0.06644438207149506
aF-0.12215983122587204
aF0.07125195115804672
aF0.056873954832553864
aF-0.042989760637283325
aF0.025422781705856323
aF0.01579301990568638
aF0.13047829270362854
aF0.025759711861610413
aF-0.005498768296092749
aF-0.03985285758972168
aF-0.055108290165662766
aF0.05966899171471596
aF0.037319302558898926
aF-0.10788009315729141
aF-0.06253853440284729
aF0.037677641957998276
aF-0.12011734396219254
aF-0.036747295409440994
aF0.1375521868467331
aF0.09769841283559799
aF-0.12900836765766144
aF0.17008663713932037
aF-0.04643993452191353
aF-0.1457035392522812
aF-0.06229954957962036
aF0.005010231863707304
aF-0.08800404518842697
aF0.0053411815315485
aF-0.06915506720542908
aF0.056265898048877716
aF-0.05179478973150253
aF-0.13978591561317444
aF-0.07162221521139145
aF-0.0781615599989891
aF0.12713523209095
aF0.03540748730301857
aF0.10821591317653656
aF-0.04318474978208542
aF-0.020897990092635155
aF-0.14918862283229828
aF0.017135068774223328
aF0.03456909582018852
aF0.008117434568703175
aF0.019901880994439125
aF0.1698019802570343
aF0.017599787563085556
aF-0.10936400294303894
aF-0.007532223593443632
aF-0.17195869982242584
aF-0.096519835293293
aF-0.025391194969415665
aF-0.05128704383969307
aF-0.08899809420108795
aF0.11554748564958572
aF0.13869599997997284
aF-0.0071028186939656734
aa(lp53
F-0.10406206548213959
aF-0.044310249388217926
aF0.1241965964436531
aF0.08467162400484085
aF0.12136244028806686
aF-0.13728980720043182
aF-0.1050742119550705
aF0.0028274243231862783
aF-0.14460685849189758
aF0.021110758185386658
aF0.061690617352724075
aF-0.1745631992816925
aF-0.09144974499940872
aF0.05634026601910591
aF-0.09456048905849457
aF0.01772896759212017
aF-0.0583612397313118
aF0.13364379107952118
aF0.16059431433677673
aF0.02720757946372032
aF-0.07183916121721268
aF0.05307987704873085
aF-0.12757229804992676
aF-0.06133107468485832
aF0.11111804097890854
aF-0.09111224114894867
aF-0.164361372590065
aF-0.008047377690672874
aF-0.12881416082382202
aF-0.06115662679076195
aF0.08112388849258423
aF-0.025796009227633476
aF-0.04250332713127136
aF0.01924445852637291
aF-0.037819523364305496
aF0.10783948004245758
aF0.1351523995399475
aF0.06127508729696274
aF0.047699496150016785
aF-0.08530189096927643
aF-0.06749631464481354
aF-0.03237765654921532
aF-0.11857416480779648
aF-0.1092500388622284
aF0.005319621879607439
aF-0.12946701049804688
aF-0.019354242831468582
aF0.0733988806605339
aF0.012800650671124458
aF0.02396591752767563
aF-0.028379207476973534
aF0.028232678771018982
aF0.014137765392661095
aF-0.08642730116844177
aF-0.007164706941694021
aF0.04777828976511955
aF0.14045782387256622
aF0.08843182027339935
aF-0.02524489164352417
aF-0.062187857925891876
aF0.04186883568763733
aF0.1308748424053192
aF-0.060182590037584305
aF0.00299953855574131
aF-0.1504792720079422
aF0.09308041632175446
aF0.18820254504680634
aF0.008062398992478848
aF0.15707968175411224
aF0.08691538125276566
aF0.06947967410087585
aF0.026348531246185303
aF0.06337718665599823
aF-0.10661008954048157
aF-0.053644925355911255
aF-0.14230212569236755
aF-0.05929965153336525
aF0.11487054824829102
aF0.10711562633514404
aF0.055816859006881714
aF0.047717973589897156
aF0.0746903121471405
aF-0.083730548620224
aF0.026719290763139725
aF0.029548700898885727
aF0.09878057986497879
aF-0.21170181035995483
aF-0.013933292590081692
aF-0.04939670115709305
aF0.010794888250529766
aF-0.04014413803815842
aF0.11306119710206985
aF0.07948339730501175
aF0.1318928599357605
aF-0.015467173419892788
aF0.09023083746433258
aF0.019470782950520515
aF0.1840714067220688
aF-0.09788857400417328
aF-0.11925940215587616
aF-0.02660607360303402
aF-0.15901461243629456
aF-0.03397100046277046
aF0.1558862328529358
aF0.05329962819814682
aF0.052178677171468735
aF0.018360674381256104
aF-0.033832184970378876
aF-0.044790543615818024
aF-0.024970438331365585
aF0.032038308680057526
aF-0.03473782539367676
aF0.05647995322942734
aF-0.0632840096950531
aF0.18530748784542084
aF-0.05204972252249718
aF-0.025434445589780807
aF-0.07088426500558853
aF-0.11814317107200623
aF-0.011653155088424683
aF0.10042544454336166
aF0.04071549326181412
aF-0.04297581687569618
aF0.0915057361125946
aF0.014314426109194756
aF0.04316193237900734
aF-0.1395188570022583
aF-0.03194310888648033
aa(lp54
F0.03386068344116211
aF-0.06485717743635178
aF0.06658633798360825
aF-0.013698420487344265
aF0.05751291289925575
aF-0.09066672623157501
aF-0.00922214612364769
aF0.175739586353302
aF-0.01666269451379776
aF-0.05969443544745445
aF-0.02423611469566822
aF-0.0010515449102967978
aF-0.03322504833340645
aF0.0012436078395694494
aF0.005308300722390413
aF0.08268281072378159
aF0.08862234652042389
aF-0.035838883370161057
aF0.004021146334707737
aF0.0773233100771904
aF-0.010749531909823418
aF-0.1065462976694107
aF-0.11372826993465424
aF0.08075807988643646
aF0.013914094306528568
aF-0.0704166367650032
aF-0.14409412443637848
aF0.09007363766431808
aF-0.10364290326833725
aF0.03622397780418396
aF0.10180944204330444
aF0.11749332398176193
aF0.05380968004465103
aF-0.04519899562001228
aF-0.014323349110782146
aF0.00781365018337965
aF-0.08264318853616714
aF-0.03446545451879501
aF-0.010901940986514091
aF-0.13587766885757446
aF-0.06820511817932129
aF0.14930939674377441
aF0.08972659707069397
aF-0.08450408279895782
aF0.02796013653278351
aF-0.04178313538432121
aF-0.15937726199626923
aF0.04464848339557648
aF-0.13019439578056335
aF0.014952054247260094
aF0.04824097454547882
aF0.13602754473686218
aF0.027712510898709297
aF0.07228869199752808
aF0.1625741571187973
aF-0.021228143945336342
aF-0.11435741931200027
aF0.0953630581498146
aF0.05216739699244499
aF0.17524953186511993
aF-0.10580867528915405
aF-0.060198042541742325
aF-0.01157093420624733
aF0.050724245607852936
aF-0.014355621300637722
aF-0.08771524578332901
aF-0.02890307828783989
aF-0.09743694216012955
aF-0.08252787590026855
aF0.0568380244076252
aF0.05673006922006607
aF-0.038262542337179184
aF-0.08590243011713028
aF0.12058543413877487
aF-0.11083988100290298
aF0.04884424805641174
aF-0.060187723487615585
aF0.08129682391881943
aF0.08252998441457748
aF-0.02842419035732746
aF0.12836293876171112
aF-0.027530808001756668
aF0.07726529985666275
aF0.1576603353023529
aF0.007828718982636929
aF-0.02458110824227333
aF-0.05511683598160744
aF-0.18285521864891052
aF-0.14631938934326172
aF-0.11547189205884933
aF0.12004942446947098
aF0.13147826492786407
aF0.047729089856147766
aF-0.048901207745075226
aF-0.012365543283522129
aF-0.010461317375302315
aF0.07877836376428604
aF-0.12569256126880646
aF0.00036390149034559727
aF0.021982166916131973
aF-0.0991360992193222
aF0.1708562672138214
aF-0.005396783351898193
aF-0.1886405050754547
aF0.06593503803014755
aF-0.07045533508062363
aF0.19281385838985443
aF0.19750501215457916
aF-0.10101618617773056
aF0.11655251681804657
aF-0.015358706936240196
aF-0.14271166920661926
aF-0.025342578068375587
aF0.13881319761276245
aF-0.10072187334299088
aF0.013349945656955242
aF0.08092210441827774
aF-0.1162974014878273
aF-0.04516323655843735
aF-0.024523070082068443
aF-0.032654985785484314
aF0.13801294565200806
aF-0.09950502961874008
aF-0.028951669111847878
aF-0.0573551319539547
aF0.011140020564198494
aF0.10769996047019958
aF0.0339016318321228
aa(lp55
F0.05886423587799072
aF0.005900575779378414
aF0.11203136295080185
aF-0.09899856150150299
aF0.12525208294391632
aF0.02442706748843193
aF0.06451941281557083
aF0.14157605171203613
aF0.0843798965215683
aF-0.10193241387605667
aF0.004374530632048845
aF0.04829268530011177
aF-0.04324735328555107
aF0.0568997897207737
aF-0.06359583884477615
aF0.05889192223548889
aF0.01426897943019867
aF0.036625053733587265
aF-0.07057908922433853
aF-0.08761651068925858
aF-0.10740958899259567
aF0.021161364391446114
aF0.11651422828435898
aF0.12251527607440948
aF-0.08679964393377304
aF-0.11216140538454056
aF0.007633434142917395
aF0.1462831348180771
aF-0.13004764914512634
aF0.03867068514227867
aF0.14167794585227966
aF0.14553765952587128
aF0.09544588625431061
aF0.07686008512973785
aF0.08055014908313751
aF-0.0595058798789978
aF0.02332472614943981
aF0.009676978923380375
aF-0.015040833503007889
aF-0.04355068504810333
aF-0.06021655350923538
aF-0.0044123283587396145
aF-0.16561956703662872
aF0.10211065411567688
aF-0.07178112119436264
aF0.01114532072097063
aF-0.02525264583528042
aF-0.17739199101924896
aF0.14174216985702515
aF0.1005965918302536
aF-0.08929913491010666
aF0.07282409071922302
aF-0.049476806074380875
aF-0.016148116439580917
aF-0.159685418009758
aF0.1567283719778061
aF0.0008441553800366819
aF0.044495921581983566
aF-0.11821405589580536
aF-0.12435838580131531
aF0.10930802673101425
aF0.03101777285337448
aF0.03839269280433655
aF0.07320602238178253
aF3.442039815126918e-05
aF0.02423822693526745
aF0.040568552911281586
aF0.06516703963279724
aF0.10996465384960175
aF0.10041924566030502
aF0.06068005412817001
aF0.023250777274370193
aF0.04956582933664322
aF0.011151233687996864
aF-0.07615705579519272
aF0.13611099123954773
aF-0.1157417967915535
aF0.1194053515791893
aF-0.056916479021310806
aF-0.04712129756808281
aF-0.14006935060024261
aF-0.030735399574041367
aF-0.024749835953116417
aF-0.12296248227357864
aF0.02504139021039009
aF0.01967656798660755
aF-0.13979190587997437
aF-0.006629286799579859
aF-0.08991307765245438
aF-0.0346580371260643
aF-0.005899498239159584
aF-0.029535656794905663
aF0.22000834345817566
aF-0.05854515731334686
aF0.17546699941158295
aF0.02478770725429058
aF-0.06267623603343964
aF0.02703448385000229
aF0.06389657407999039
aF-0.016361054033041
aF0.04575078561902046
aF-0.21671375632286072
aF-0.08380670845508575
aF0.030229877680540085
aF-0.014385439455509186
aF0.09540857374668121
aF-0.09160270541906357
aF-0.09639792144298553
aF0.02670462429523468
aF0.005820846650749445
aF0.04990873485803604
aF-0.021455759182572365
aF0.10531635582447052
aF-0.12084148079156876
aF0.08813535422086716
aF-0.1279720664024353
aF0.0010940923821181059
aF-0.11182060837745667
aF0.08702196925878525
aF0.06572664529085159
aF-0.054395925253629684
aF-0.05774590000510216
aF-0.18979337811470032
aF0.04614337161183357
aF0.0339103639125824
aF0.06355756521224976
aF-0.04092756286263466
aF0.15996314585208893
aa(lp56
F0.035380955785512924
aF0.01914374902844429
aF0.012003452517092228
aF-0.004625672474503517
aF-0.04146302863955498
aF-0.054545484483242035
aF0.09720925986766815
aF0.12569905817508698
aF-0.020495278760790825
aF0.03777309134602547
aF-0.007133809849619865
aF-0.10214951634407043
aF0.02868174947798252
aF0.07339314371347427
aF-0.02455129474401474
aF-0.15016725659370422
aF0.08805163949728012
aF-0.1139584332704544
aF-0.12979891896247864
aF-0.0810660719871521
aF-0.021745964884757996
aF-0.07676862925291061
aF-0.002747907070443034
aF-0.06456292420625687
aF0.041140876710414886
aF0.01620992086827755
aF-0.1512177735567093
aF0.0025390153750777245
aF-0.06408865004777908
aF-0.12046002596616745
aF0.13679814338684082
aF0.06661919504404068
aF0.12472096085548401
aF0.07971236109733582
aF-0.16515666246414185
aF-0.026469100266695023
aF-0.07005341351032257
aF0.07565406709909439
aF0.06380382180213928
aF0.08535926043987274
aF0.003942951560020447
aF-0.13041257858276367
aF0.06360884755849838
aF-0.07071532309055328
aF-0.07883195579051971
aF-0.07527363300323486
aF0.11192915588617325
aF0.039907943457365036
aF0.0639784187078476
aF-0.16416582465171814
aF0.07291349023580551
aF-0.11225537955760956
aF-0.1336313784122467
aF0.0663299709558487
aF0.010841520503163338
aF-0.15137027204036713
aF0.03032260574400425
aF-0.06955167651176453
aF-0.1422717273235321
aF0.018534544855356216
aF0.023979300633072853
aF-0.014996734447777271
aF0.02076704427599907
aF-0.13697804510593414
aF0.045135997235774994
aF-0.1001928299665451
aF-0.06881366670131683
aF-0.0038258160930126905
aF-0.03976856917142868
aF-0.12259529531002045
aF-0.037716396152973175
aF0.09503820538520813
aF0.11861465871334076
aF0.04256423935294151
aF0.017886517569422722
aF-0.14687968790531158
aF-0.08630653470754623
aF0.13575297594070435
aF0.164127379655838
aF0.07259420305490494
aF-0.10531775653362274
aF-0.08395940065383911
aF0.10008414834737778
aF0.02402040921151638
aF0.09557461738586426
aF-0.0708281472325325
aF0.03293691575527191
aF0.03010595217347145
aF0.0563243106007576
aF-0.01657634973526001
aF0.05520343780517578
aF0.10952070355415344
aF0.055336110293865204
aF0.07694375514984131
aF-0.09282654523849487
aF-0.12196094542741776
aF0.10806438326835632
aF0.14689087867736816
aF0.1059122085571289
aF-0.08487454801797867
aF-0.16038380563259125
aF-0.06598646193742752
aF-0.09610114246606827
aF-0.03881955146789551
aF-0.14452791213989258
aF0.025243420153856277
aF0.194101020693779
aF0.06222646310925484
aF-0.024703901261091232
aF0.07483693212270737
aF0.10408151149749756
aF0.03452825918793678
aF-0.09286460280418396
aF0.07384292781352997
aF-0.172352597117424
aF-0.10695040225982666
aF-0.0875357836484909
aF-0.04037093371152878
aF-0.09477383643388748
aF-0.09461212903261185
aF-0.1776777058839798
aF0.026426900178194046
aF-0.004217077046632767
aF-0.0420093834400177
aF-0.05938789248466492
aF-0.002101949881762266
aF-0.011219815351068974
aF-0.10581653565168381
aa(lp57
F-0.06420890241861343
aF-0.07660464197397232
aF0.1395251601934433
aF-0.050782348960638046
aF0.14607152342796326
aF0.004077001940459013
aF0.0005477408994920552
aF0.08654012531042099
aF-0.017031313851475716
aF-0.09491796046495438
aF-0.009214074350893497
aF0.1027030497789383
aF0.07332046329975128
aF-0.04728350788354874
aF-0.17812560498714447
aF0.0866008847951889
aF0.07691313326358795
aF0.10648555308580399
aF0.0983077809214592
aF0.10263927280902863
aF-0.04283867031335831
aF-0.12285008281469345
aF-0.022990107536315918
aF0.1231314018368721
aF-0.04745084047317505
aF-0.14980033040046692
aF-0.07017264515161514
aF-0.024543222039937973
aF-0.18887785077095032
aF-0.0622125118970871
aF-0.033737316727638245
aF-0.12761752307415009
aF0.05007021874189377
aF-0.13204418122768402
aF0.0336184985935688
aF0.12239789217710495
aF0.11178946495056152
aF-0.005426423624157906
aF-0.05635928735136986
aF-0.14068381488323212
aF0.004071072209626436
aF-0.024647222831845284
aF-0.2363053858280182
aF-0.02494051307439804
aF-0.007832611910998821
aF-0.08353465795516968
aF0.06901518255472183
aF0.01266438513994217
aF0.09414684027433395
aF0.1207452043890953
aF-0.08215191215276718
aF-0.14680621027946472
aF0.01742052286863327
aF-0.049064766615629196
aF0.11011622846126556
aF0.1173713281750679
aF-0.04017038270831108
aF0.09085915237665176
aF0.009033539332449436
aF0.0018363083945587277
aF-0.05185500904917717
aF-0.07003165781497955
aF0.07165322452783585
aF-0.12814368307590485
aF-0.0931842103600502
aF-0.044005341827869415
aF-0.07226036489009857
aF0.14752860367298126
aF-0.01683759316802025
aF-0.08236817270517349
aF-0.061088353395462036
aF0.023483794182538986
aF-0.034624893218278885
aF-0.13275080919265747
aF-0.04406055063009262
aF-0.04463514685630798
aF-0.047645628452301025
aF-0.09113302826881409
aF-0.05340246483683586
aF0.049013204872608185
aF-0.11595549434423447
aF0.021141337230801582
aF-0.08232145011425018
aF0.13246257603168488
aF-0.10480888187885284
aF-0.13701801002025604
aF-0.08198433369398117
aF0.0712001696228981
aF0.013234253041446209
aF0.1172894686460495
aF-0.08881884068250656
aF0.04328608885407448
aF0.16600705683231354
aF-0.09439519047737122
aF0.06812576949596405
aF0.024818990379571915
aF0.021068615838885307
aF-0.03229052200913429
aF0.05812518671154976
aF0.06390634179115295
aF0.06648974865674973
aF-0.17669762670993805
aF-0.061333466321229935
aF0.008576210588216782
aF0.1154765635728836
aF0.1432586908340454
aF-0.04451131448149681
aF-0.07428129017353058
aF-0.033545348793268204
aF0.08763721585273743
aF0.11502046138048172
aF0.06018444895744324
aF0.026879746466875076
aF0.034291822463274
aF0.0612921379506588
aF-0.019319582730531693
aF0.010248915292322636
aF-0.10335461795330048
aF-0.1473207175731659
aF-0.0823788121342659
aF0.1161591038107872
aF-0.07141764461994171
aF-0.03690241277217865
aF0.097243532538414
aF0.12697859108448029
aF0.05530766025185585
aF0.10587961971759796
aF-0.04185689985752106
aa.