(dp0
(I1
I34
tp1
I1
s(I6
I9
tp2
I2
s(I5
I31
tp3
I18
s(I17
I41
tp4
I1
s(I3
I8
tp5
I3
s(I10
I17
tp6
I4
s(I0
I20
tp7
I25
s(I14
I50
tp8
I1
s(I6
I28
tp9
I1
s(I30
I41
tp10
I4
s(I15
I41
tp11
I1
s(I3
I52
tp12
I3
s(I1
I17
tp13
I1
s(I17
I20
tp14
I1
s(I23
I41
tp15
I29
s(I6
I35
tp16
I1
s(I13
I17
tp17
I13
s(I1
I6
tp18
I18
s(I0
I10
tp19
I46
s(I23
I26
tp20
I1
s(I8
I45
tp21
I1
s(I2
I5
tp22
I38
s(I4
I48
tp23
I1
s(I17
I46
tp24
I8
s(I16
I19
tp25
I23
s(I20
I48
tp26
I1
s(I2
I23
tp27
I1
s(I1
I56
tp28
I9
s(I0
I32
tp29
I3
s(I6
I7
tp30
I32
s(I13
I45
tp31
I14
s(I23
I54
tp32
I2
s(I6
I10
tp33
I3
s(I20
I39
tp34
I1
s(I28
I35
tp35
I1
s(I25
I41
tp36
I15
s(I0
I17
tp37
I12
s(I7
I19
tp38
I30
s(I6
I25
tp39
I1
s(I12
I17
tp40
I1
s(I2
I17
tp41
I4
s(I9
I36
tp42
I2
s(I0
I4
tp43
I38
s(I14
I52
tp44
I3
s(I12
I34
tp45
I1
s(I10
I35
tp46
I2
s(I9
I17
tp47
I12
s(I6
I51
tp48
I2
s(I4
I10
tp49
I22
s(I19
I50
tp50
I1
s(I2
I6
tp51
I4
s(I1
I54
tp52
I5
s(I7
I10
tp53
I1
s(I41
I52
tp54
I11
s(I4
I5
tp55
I54
s(I3
I23
tp56
I8
s(I2
I53
tp57
I6
s(I26
I54
tp58
I3
s(I4
I16
tp59
I1
s(I28
I53
tp60
I7
s(I2
I32
tp61
I1
s(I6
I23
tp62
I5
s(I22
I35
tp63
I1
s(I6
I18
tp64
I1
s(I10
I23
tp65
I2
s(I0
I30
tp66
I5
s(I2
I41
tp67
I7
s(I8
I12
tp68
I1
s(I8
I43
tp69
I1
s(I41
I56
tp70
I1
s(I10
I41
tp71
I14
s(I2
I28
tp72
I8
s(I0
I1
tp73
I56
s(I6
I41
tp74
I13
s(I18
I25
tp75
I9
s(I1
I12
tp76
I2
s(I0
I52
tp77
I6
s(I14
I25
tp78
I1
s(I12
I39
tp79
I1
s(I17
I39
tp80
I13
s(I42
I53
tp81
I6
s(I0
I39
tp82
I2
s(I5
I14
tp83
I5
s(I4
I26
tp84
I1
s(I3
I18
tp85
I1
s(I10
I14
tp86
I8
s(I8
I18
tp87
I10
s(I6
I13
tp88
I3
s(I10
I16
tp89
I1
s(I37
I54
tp90
I1
s(I27
I34
tp91
I15
s(I4
I32
tp92
I3
s(I6
I16
tp93
I26
s(I33
I41
tp94
I13
s(I3
I56
tp95
I3
s(I8
I25
tp96
I20
s(I8
I35
tp97
I9
s(I1
I26
tp98
I12
s(I0
I14
tp99
I23
s(I16
I35
tp100
I1
s(I44
I48
tp101
I1
s(I30
I55
tp102
I1
s(I18
I33
tp103
I1
s(I18
I26
tp104
I3
s(I8
I9
tp105
I2
s(I22
I50
tp106
I1
s(I4
I12
tp107
I4
s(I2
I12
tp108
I10
s(I18
I41
tp109
I14
s(I41
I50
tp110
I8
s(I4
I31
tp111
I22
s(I14
I22
tp112
I2
s(I1
I33
tp113
I14
s(I23
I50
tp114
I3
s(I6
I14
tp115
I4
s(I0
I21
tp116
I23
s(I6
I44
tp117
I1
s(I22
I45
tp118
I14
s(I28
I42
tp119
I6
s(I6
I49
tp120
I1
s(I15
I47
tp121
I13
s(I10
I52
tp122
I1
s(I10
I39
tp123
I3
s(I8
I17
tp124
I1
s(I16
I32
tp125
I1
s(I6
I55
tp126
I1
s(I13
I29
tp127
I1
s(I3
I6
tp128
I3
s(I1
I13
tp129
I1
s(I1
I10
tp130
I14
s(I15
I46
tp131
I8
s(I12
I41
tp132
I1
s(I0
I33
tp133
I4
s(I26
I33
tp134
I1
s(I6
I36
tp135
I1
s(I6
I11
tp136
I27
s(I5
I17
tp137
I1
s(I20
I31
tp138
I25
s(I10
I19
tp139
I1
s(I0
I18
tp140
I8
s(I32
I39
tp141
I1
s(I1
I15
tp142
I1
s(I6
I32
tp143
I1
s(I25
I43
tp144
I1
s(I0
I5
tp145
I40
s(I12
I29
tp146
I10
s(I10
I32
tp147
I15
s(I0
I8
tp148
I17
s(I10
I48
tp149
I2
s(I14
I40
tp150
I12
s(I9
I13
tp151
I43
s(I5
I10
tp152
I18
s(I4
I6
tp153
I7
s(I25
I26
tp154
I4
s(I4
I17
tp155
I1
s(I10
I25
tp156
I5
s(I23
I52
tp157
I5
s(I22
I36
tp158
I14
s(I5
I20
tp159
I32
s(I10
I20
tp160
I4
s(I0
I31
tp161
I15
s(I7
I17
tp162
I13
s(I17
I22
tp163
I1
s(I28
I44
tp164
I7
s(I1
I30
tp165
I4
s(I0
I2
tp166
I35
s(I13
I22
tp167
I15
s(I11
I16
tp168
I29
s(I2
I29
tp169
I2
s(I1
I3
tp170
I29
s(I8
I13
tp171
I1
s(I12
I32
tp172
I2
s(I2
I8
tp173
I4
s(I0
I56
tp174
I1
s(I41
I54
tp175
I1
s(I0
I27
tp176
I2
s(I12
I51
tp177
I2
s(I42
I44
tp178
I6
s(I10
I15
tp179
I1
s(I1
I37
tp180
I18
s(I0
I43
tp181
I9
s(I14
I26
tp182
I1
s(I46
I47
tp183
I7
s(I12
I14
tp184
I1
s(I10
I26
tp185
I1
s(I1
I42
tp186
I1
s(I7
I11
tp187
I38
s(I6
I17
tp188
I23
s(I2
I42
tp189
I6
s(I11
I19
tp190
I26
s(I0
I28
tp191
I5
s(I16
I17
tp192
I14
s(I8
I41
tp193
I25
s(I33
I56
tp194
I2
s(I8
I48
tp195
I6
s(I10
I43
tp196
I3
s(I1
I25
tp197
I18
s(I0
I15
tp198
I11
s(I16
I22
tp199
I1
s(I6
I43
tp200
I1
s(I3
I10
tp201
I1
s(I10
I38
tp202
I3
s(I1
I14
tp203
I10
s(I8
I10
tp204
I8
s(I15
I42
tp205
I1
s(I0
I37
tp206
I3
s(I15
I39
tp207
I1
s(I14
I31
tp208
I3
s(I12
I48
tp209
I1
s(I43
I50
tp210
I1
s(I0
I40
tp211
I3
s(I6
I15
tp212
I29
s(I5
I29
tp213
I1
s(I3
I37
tp214
I2
s(I2
I39
tp215
I3
s(I0
I22
tp216
I3
s(I6
I42
tp217
I1
s(I9
I10
tp218
I1
s(I21
I48
tp219
I1
s(I0
I47
tp220
I1
s(I1
I23
tp221
I33
s(I0
I25
tp222
I15
s(I40
I43
tp223
I9
s(I32
I38
tp224
I3
s(I2
I20
tp225
I17
s(I1
I4
tp226
I1
s(I0
I12
tp227
I20
s(I41
I42
tp228
I1
s(I6
I52
tp229
I3
s(I30
I49
tp230
I1
s(I2
I3
tp231
I2
s(I22
I28
tp232
I1
s(I3
I26
tp233
I1
s(I2
I14
tp234
I5
s(I8
I26
tp235
I8
s(I0
I26
tp236
I5
s(I4
I29
tp237
I4
s(I6
I8
tp238
I2
s(I5
I16
tp239
I2
s(I14
I23
tp240
I2
s(I0
I19
tp241
I1
s(I1
I18
tp242
I15
s(I0
I6
tp243
I23
s(I16
I27
tp244
I1
s(I18
I23
tp245
I3
s(I12
I30
tp246
I1
s(I10
I33
tp247
I2
s(I0
I9
tp248
I1
s(I14
I41
tp249
I9
s(I4
I8
tp250
I1
s(I2
I4
tp251
I44
s(I1
I52
tp252
I11
s(I17
I47
tp253
I14
s(I44
I53
tp254
I7
s(I14
I43
tp255
I15
s(I3
I25
tp256
I2
s(I2
I51
tp257
I2
s(I8
I23
tp258
I4
s(I37
I41
tp259
I4
s(I5
I6
tp260
I3
s(I16
I28
tp261
I4
s(I20
I29
tp262
I3
s(I10
I21
tp263
I14
s(I0
I16
tp264
I8
s(I7
I16
tp265
I32
s(I0
I50
tp266
I2
s(I5
I32
tp267
I1
s(I1
I29
tp268
I3
s(I0
I3
tp269
I7
s(I8
I50
tp270
I2
s(I3
I14
tp271
I2
s(I10
I34
tp272
I1
s(I1
I2
tp273
I7
s(I0
I54
tp274
I2
s(I23
I30
tp275
I4
s(I6
I50
tp276
I1
s(I10
I13
tp277
I1
s(I6
I20
tp278
I2
s(I25
I50
tp279
I1
s(I6
I47
tp280
I2
s(I13
I36
tp281
I15
s(I29
I31
tp282
I1
s(I10
I12
tp283
I5
s(I26
I41
tp284
I11
s(I8
I20
tp285
I1
s(I14
I27
tp286
I1
s(I8
I33
tp287
I1
s(I14
I20
tp288
I5
s(I3
I41
tp289
I19
s(I10
I27
tp290
I1
s(I1
I41
tp291
I132
s(I10
I44
tp292
I1
s(I6
I22
tp293
I3
s(I10
I22
tp294
I2
s(I0
I29
tp295
I9
s(I34
I41
tp296
I1
s(I6
I37
tp297
I1
s(I2
I44
tp298
I6
s(I17
I31
tp299
I1
s(I10
I40
tp300
I1
s(I17
I19
tp301
I13
s(I31
I39
tp302
I1
s(I8
I14
tp303
I2
s(I2
I31
tp304
I13
s(I8
I54
tp305
I1
s(I17
I32
tp306
I1
s(I49
I55
tp307
I7
s(I4
I14
tp308
I12
s(I2
I10
tp309
I20
s(I1
I50
tp310
I9
s(I0
I38
tp311
I2
s(I13
I39
tp312
I1
s(I26
I48
tp313
I3
s(I0
I41
tp314
I49
s(I6
I12
tp315
I8
s(I4
I20
tp316
I36
s(I0
I23
tp317
I10
s(I15
I17
tp318
I26
s(I6
I19
tp319
I23
s(I4
I39
tp320
I1
s(I11
I17
tp321
I12
s(I6
I29
tp322
I4
s(I16
I31
tp323
I1
s(I23
I33
tp324
I1
s(I10
I45
tp325
I1
s(I10
I18
tp326
I6
s(I0
I13
tp327
I1
s(I6
I53
tp328
I1
s(I36
I45
tp329
I14
s(I14
I16
tp330
I2
s(I1
I8
tp331
I29
s(I0
I48
tp332
I1
s(I14
I32
tp333
I2
s(I35
I48
tp334
I6
s(I22
I39
tp335
I1
s(I0
I35
tp336
I1
s(I10
I31
tp337
I3
s(I16
I20
tp338
I2
s.