(lp0
(lp1
I10
aI17
aI5
aI0
aa(lp2
I1
aI56
aa(lp3
I10
aI0
aI21
aa(lp4
I41
aI1
aa(lp5
I0
aI2
aI12
aa(lp6
I0
aI12
aa(lp7
I2
aI12
aa(lp8
I2
aI12
aa(lp9
I2
aI12
aa(lp10
I6
aI2
aI12
aa(lp11
I36
aI45
aI22
aI13
aa(lp12
I36
aI45
aI22
aI13
aa(lp13
I10
aI4
aI5
aI2
aa(lp14
I10
aI12
aa(lp15
I10
aI4
aI5
aI0
aI2
aa(lp16
I17
aI13
aI9
aa(lp17
I17
aI13
aI9
aa(lp18
I3
aI1
aI56
aa(lp19
I41
aI3
aI1
aI2
aa(lp20
I18
aI41
aI1
aa(lp21
I4
aI20
aI5
aI31
aI0
aI2
aa(lp22
I27
aI34
aa(lp23
I1
aI37
aa(lp24
I0
aI21
aa(lp25
I27
aI34
aa(lp26
I14
aI40
aI43
aa(lp27
I41
aI1
aI23
aa(lp28
I1
aI37
aa(lp29
I6
aI51
aa(lp30
I6
aI7
aI11
aI17
aI16
aI19
aa(lp31
I6
aI7
aI11
aI17
aI16
aI19
aa(lp32
I10
aI22
aa(lp33
I15
aI46
aI17
aa(lp34
I14
aI0
aI43
aa(lp35
I13
aI9
aa(lp36
I48
aI12
aa(lp37
I14
aI41
aI52
aI0
aI1
aa(lp38
I41
aI3
aI0
aI1
aa(lp39
I4
aI20
aI5
aI31
aI0
aI2
aa(lp40
I15
aI17
aI47
aa(lp41
I41
aI26
aI1
aa(lp42
I1
aI37
aa(lp43
I41
aI1
aa(lp44
I29
aI1
aa(lp45
I0
aI2
aa(lp46
I10
aI22
aa(lp47
I18
aI41
aI1
aa(lp48
I1
aI37
aa(lp49
I13
aI9
aa(lp50
I20
aI31
aI0
aI2
aa(lp51
I1
aI37
aa(lp52
I41
aI52
aI0
aI1
aa(lp53
I14
aI10
aI41
aI52
aI0
aI1
aa(lp54
I1
aI37
aa(lp55
I10
aI33
aI41
aI0
aI1
aa(lp56
I41
aI0
aI1
aa(lp57
I1
aI37
aa(lp58
I41
aI0
aI1
aI37
aa(lp59
I41
aI3
aI1
aa(lp60
I6
aI1
aI37
aa(lp61
I14
aI40
aa(lp62
I41
aI3
aI0
aI1
aI37
aa(lp63
I41
aI0
aI1
aI23
aa(lp64
I14
aI40
aI43
aa(lp65
I10
aI12
aa(lp66
I13
aI9
aa(lp67
I6
aI15
aa(lp68
I13
aI9
aa(lp69
I0
aI21
aa(lp70
I4
aI20
aI5
aI2
aa(lp71
I41
aI3
aI1
aI37
aa(lp72
I6
aI1
aa(lp73
I6
aI1
aa(lp74
I6
aI7
aI11
aa(lp75
I4
aI5
aI0
aI2
aa(lp76
I41
aI0
aI1
aa(lp77
I6
aI55
aI49
aa(lp78
I17
aI13
aI9
aa(lp79
I1
aI37
aa(lp80
I0
aI21
aa(lp81
I6
aI12
aa(lp82
I41
aI52
aI3
aI0
aI1
aI23
aa(lp83
I6
aI29
aa(lp84
I29
aI0
aI1
aI12
aa(lp85
I1
aI37
aa(lp86
I1
aI37
aa(lp87
I14
aI41
aI52
aI3
aI1
aI23
aa(lp88
I1
aI37
aa(lp89
I10
aI26
aI0
aa(lp90
I33
aI41
aI0
aI1
aa(lp91
I41
aI3
aI1
aI23
aa(lp92
I41
aI1
aI37
aa(lp93
I28
aI0
aa(lp94
I13
aI9
aa(lp95
I13
aI9
aa(lp96
I13
aI9
aa(lp97
I13
aI9
aa(lp98
I13
aI9
aa(lp99
I13
aI9
aa(lp100
I13
aI9
aa(lp101
I13
aI9
aa(lp102
I0
aI38
aa(lp103
I18
aI41
aI26
aI0
aI25
aI1
aI8
aa(lp104
I10
aI32
aI0
aa(lp105
I14
aI40
aI0
aI43
aa(lp106
I14
aI40
aI0
aI43
aa(lp107
I35
aI8
aa(lp108
I27
aI0
aa(lp109
I15
aI46
aI17
aI47
aa(lp110
I41
aI0
aI25
aI1
aI8
aa(lp111
I0
aI13
aI9
aa(lp112
I6
aI15
aI0
aa(lp113
I1
aI37
aa(lp114
I41
aI3
aI1
aa(lp115
I55
aI49
aI30
aa(lp116
I54
aI0
aI1
aI37
aa(lp117
I41
aI1
aa(lp118
I6
aI7
aI11
aa(lp119
I6
aI0
aI2
aa(lp120
I0
aI21
aa(lp121
I0
aI21
aa(lp122
I10
aI0
aI21
aa(lp123
I10
aI0
aI21
aa(lp124
I10
aI0
aI21
aa(lp125
I41
aI0
aI1
aI30
aI23
aa(lp126
I4
aI29
aI20
aI0
aa(lp127
I36
aI45
aI22
aI13
aa(lp128
I14
aI0
aI43
aa(lp129
I41
aI1
aa(lp130
I14
aI10
aI0
aI43
aa(lp131
I15
aI17
aI47
aa(lp132
I4
aI0
aI2
aa(lp133
I14
aI0
aI43
aa(lp134
I14
aI10
aI0
aI43
aa(lp135
I14
aI41
aI0
aI1
aa(lp136
I41
aI1
aa(lp137
I41
aI1
aa(lp138
I41
aI1
aa(lp139
I14
aI6
aI0
aI43
aa(lp140
I29
aI2
aa(lp141
I4
aI6
aI20
aI5
aI0
aa(lp142
I4
aI29
aI2
aI12
aa(lp143
I6
aI15
aI0
aa(lp144
I7
aI11
aI19
aa(lp145
I17
aI39
aa(lp146
I6
aI0
aa(lp147
I41
aI1
aa(lp148
I18
aI41
aI26
aI25
aI1
aI8
aa(lp149
I41
aI1
aa(lp150
I41
aI52
aI1
aa(lp151
I13
aI9
aa(lp152
I4
aI6
aI12
aa(lp153
I41
aI1
aa(lp154
I41
aI26
aI1
aI23
aI8
aa(lp155
I14
aI40
aI43
aa(lp156
I35
aI8
aa(lp157
I14
aI40
aI43
aa(lp158
I17
aI47
aa(lp159
I22
aI0
aa(lp160
I29
aI0
aI12
aa(lp161
I51
aI2
aI12
aa(lp162
I29
aI0
aI12
aa(lp163
I6
aI0
aI25
aI1
aI8
aa(lp164
I2
aI12
aI8
aa(lp165
I14
aI4
aI20
aI5
aI31
aa(lp166
I27
aI34
aa(lp167
I3
aI0
aI25
aI1
aa(lp168
I29
aI0
aI12
aa(lp169
I29
aI0
aI12
aa(lp170
I29
aI0
aI12
aa(lp171
I4
aI12
aa(lp172
I7
aI11
aI16
aa(lp173
I10
aI0
aI21
aa(lp174
I10
aI4
aI17
aI39
aI20
aI31
aI2
aa(lp175
I4
aI6
aI5
aI0
aa(lp176
I6
aI51
aa(lp177
I6
aI29
aI0
aI12
aa(lp178
I4
aI26
aI1
aa(lp179
I10
aI0
aI21
aa(lp180
I0
aI21
aa(lp181
I0
aI21
aa(lp182
I0
aI21
aa(lp183
I29
aI0
aI12
aa(lp184
I51
aI2
aI12
aa(lp185
I48
aI4
aI20
aa(lp186
I10
aI0
aI21
aa(lp187
I10
aI0
aI21
aa(lp188
I17
aI39
aI13
aa(lp189
I14
aI6
aI22
aa(lp190
I14
aI40
aa(lp191
I6
aI41
aI52
aI1
aI23
aa(lp192
I6
aI41
aI52
aI3
aI0
aI1
aI23
aa(lp193
I35
aI8
aa(lp194
I36
aI45
aI22
aI13
aa(lp195
I10
aI41
aI0
aI1
aa(lp196
I36
aI45
aI22
aI13
aa(lp197
I36
aI45
aI22
aI13
aa(lp198
I36
aI45
aI22
aI13
aa(lp199
I55
aI49
aa(lp200
I13
aI9
aa(lp201
I36
aI45
aI22
aI13
aa(lp202
I36
aI45
aI22
aI13
aa(lp203
I41
aI1
aa(lp204
I36
aI45
aI22
aI13
aa(lp205
I41
aI25
aI1
aI8
aa(lp206
I36
aI45
aI22
aI13
aa(lp207
I36
aI45
aI22
aI13
aa(lp208
I36
aI45
aI22
aI13
aa(lp209
I41
aI1
aa(lp210
I14
aI10
aI40
aI43
aa(lp211
I0
aI12
aa(lp212
I4
aI5
aI2
aa(lp213
I4
aI20
aI5
aI31
aI0
aa(lp214
I41
aI52
aI1
aa(lp215
I41
aI52
aI1
aa(lp216
I14
aI40
aI43
aa(lp217
I48
aI0
aI21
aa(lp218
I7
aI11
aI19
aa(lp219
I4
aI6
aI12
aa(lp220
I14
aI40
aI0
aI43
aa(lp221
I16
aI0
aa(lp222
I15
aI17
aI47
aa(lp223
I48
aI10
aI35
aI8
aa(lp224
I6
aI41
aI50
aI1
aa(lp225
I48
aI44
aa(lp226
I6
aI0
aa(lp227
I48
aI35
aI8
aa(lp228
I48
aI35
aI8
aa(lp229
I3
aI1
aa(lp230
I10
aI4
aI5
aI0
aI2
aa(lp231
I54
aI0
aI1
aa(lp232
I29
aI20
aI31
aa(lp233
I3
aI1
aa(lp234
I6
aI15
aI0
aa(lp235
I28
aI53
aI42
aI2
aI44
aa(lp236
I6
aI15
aI17
aI0
aa(lp237
I6
aI15
aI17
aI0
aa(lp238
I4
aI29
aa(lp239
I48
aI35
aI8
aa(lp240
I5
aI2
aa(lp241
I6
aI7
aI11
aI19
aa(lp242
I6
aI15
aa(lp243
I48
aI10
aI35
aI8
aa(lp244
I48
aI35
aI8
aa(lp245
I41
aI54
aI26
aI1
aa(lp246
I10
aI4
aI6
aa(lp247
I41
aI0
aI1
aI30
aI23
aa(lp248
I14
aI4
aI5
aI2
aa(lp249
I6
aI15
aa(lp250
I10
aI17
aI39
aI2
aa(lp251
I14
aI40
aa(lp252
I6
aI41
aI1
aa(lp253
I10
aI44
aa(lp254
I55
aI49
aa(lp255
I6
aI35
aa(lp256
I14
aI4
aI5
aI2
aa(lp257
I14
aI4
aI5
aI2
aa(lp258
I0
aI19
aa(lp259
I4
aI20
aa(lp260
I41
aI52
aI0
aI1
aI23
aa(lp261
I6
aI52
aa(lp262
I50
aI19
aa(lp263
I4
aI5
aa(lp264
I41
aI50
aI1
aa(lp265
I41
aI3
aI1
aa(lp266
I7
aI11
aI16
aa(lp267
I15
aI17
aI39
aa(lp268
I4
aI20
aI5
aa(lp269
I36
aI45
aI22
aI13
aa(lp270
I29
aI12
aa(lp271
I3
aI1
aa(lp272
I10
aI41
aI0
aI1
aa(lp273
I6
aI22
aa(lp274
I50
aI25
aI43
aI8
aa(lp275
I6
aI15
aa(lp276
I13
aI9
aa(lp277
I17
aI39
aa(lp278
I28
aI16
aI35
aI22
aI0
aa(lp279
I14
aI41
aI25
aI1
aI8
aa(lp280
I6
aI15
aI0
aa(lp281
I41
aI23
aa(lp282
I6
aI29
aa(lp283
I6
aI15
aI17
aI47
aa(lp284
I13
aI9
aa(lp285
I4
aI29
aI20
aI5
aa(lp286
I13
aI9
aa(lp287
I6
aI41
aI1
aI2
aI23
aa(lp288
I41
aI26
aI0
aI25
aI1
aI8
aa(lp289
I41
aI3
aI0
aI1
aa(lp290
I41
aI26
aI0
aI25
aI1
aI8
aa(lp291
I6
aI0
aI12
aa(lp292
I41
aI1
aI2
aI8
aa(lp293
I41
aI3
aI1
aI23
aI8
aa(lp294
I0
aI12
aa(lp295
I41
aI26
aI0
aI1
aa(lp296
I4
aI2
aa(lp297
I41
aI1
aI23
aa(lp298
I17
aI13
aI9
aa(lp299
I15
aI46
aI17
aI47
aa(lp300
I4
aI5
aI0
aI2
aa(lp301
I33
aI41
aI1
aa(lp302
I10
aI4
aI5
aI0
aI2
aa(lp303
I10
aI4
aI5
aI0
aI2
aa(lp304
I10
aI4
aI5
aI0
aI2
aa(lp305
I28
aI0
aI2
aa(lp306
I4
aI20
aI5
aI31
aa(lp307
I10
aI7
aI19
aa(lp308
I28
aI2
aa(lp309
I41
aI3
aI1
aI2
aa(lp310
I10
aI32
aa(lp311
I17
aI39
aa(lp312
I41
aI1
aI23
aI8
aa(lp313
I41
aI50
aI1
aa(lp314
I6
aI15
aa(lp315
I6
aI15
aa(lp316
I6
aI15
aa(lp317
I6
aI15
aa(lp318
I10
aI4
aI5
aI2
aa(lp319
I10
aI4
aI32
aI5
aI2
aa(lp320
I10
aI20
aa(lp321
I10
aI4
aI5
aI0
aI2
aa(lp322
I4
aI5
aa(lp323
I27
aI34
aa(lp324
I6
aI1
aa(lp325
I6
aI15
aI17
aI0
aa(lp326
I6
aI15
aI17
aI0
aa(lp327
I6
aI15
aI17
aI0
aa(lp328
I0
aI21
aa(lp329
I10
aI0
aI21
aa(lp330
I1
aI8
aa(lp331
I6
aI36
aI13
aI9
aa(lp332
I6
aI15
aI17
aa(lp333
I10
aI21
aa(lp334
I10
aI0
aI21
aa(lp335
I10
aI0
aI21
aa(lp336
I10
aI0
aI21
aa(lp337
I10
aI0
aI21
aa(lp338
I41
aI0
aI1
aI30
aI23
aa(lp339
I20
aI5
aI0
aa(lp340
I13
aI9
aa(lp341
I33
aI41
aI1
aa(lp342
I41
aI1
aa(lp343
I7
aI11
aI16
aI19
aa(lp344
I10
aI32
aI0
aI12
aa(lp345
I27
aI34
aa(lp346
I18
aI41
aI3
aI0
aI25
aI1
aI8
aa(lp347
I6
aI7
aa(lp348
I4
aI20
aI5
aI0
aI2
aa(lp349
I10
aI27
aI34
aa(lp350
I36
aI9
aa(lp351
I33
aI41
aI1
aa(lp352
I6
aI29
aa(lp353
I41
aI0
aI1
aa(lp354
I10
aI33
aI41
aI1
aa(lp355
I41
aI1
aa(lp356
I6
aI0
aa(lp357
I6
aI15
aI17
aa(lp358
I7
aI11
aI16
aI19
aa(lp359
I4
aI20
aI5
aI31
aI0
aI2
aa(lp360
I27
aI34
aa(lp361
I28
aI0
aa(lp362
I20
aI16
aI5
aI0
aa(lp363
I0
aI25
aI8
aa(lp364
I10
aI4
aI5
aI0
aI2
aa(lp365
I17
aI39
aI22
aa(lp366
I0
aI38
aa(lp367
I4
aI5
aI0
aI2
aa(lp368
I33
aI41
aI1
aa(lp369
I10
aI4
aI5
aI0
aI2
aa(lp370
I10
aI4
aI5
aI0
aI2
aa(lp371
I10
aI4
aI5
aI0
aI2
aa(lp372
I10
aI4
aI5
aI0
aI2
aa(lp373
I6
aI15
aI42
aI41
aI1
aa(lp374
I7
aI11
aa(lp375
I10
aI32
aI38
aa(lp376
I3
aI1
aa(lp377
I54
aI1
aI23
aa(lp378
I20
aI5
aI31
aa(lp379
I10
aI15
aa(lp380
I6
aI15
aa(lp381
I6
aI7
aI11
aI16
aa(lp382
I6
aI7
aI11
aI16
aa(lp383
I28
aI53
aI42
aI2
aI44
aa(lp384
I18
aI41
aI0
aI1
aI23
aa(lp385
I0
aI12
aa(lp386
I1
aI56
aa(lp387
I6
aI7
aI11
aI16
aI19
aa(lp388
I15
aI46
aI17
aI47
aa(lp389
I41
aI1
aa(lp390
I15
aI17
aI47
aI0
aa(lp391
I41
aI1
aI2
aa(lp392
I27
aI34
aa(lp393
I41
aI0
aI25
aI1
aI8
aa(lp394
I28
aI53
aI42
aI2
aI44
aa(lp395
I41
aI1
aI23
aa(lp396
I55
aI49
aa(lp397
I41
aI1
aI12
aI34
aa(lp398
I13
aI9
aa(lp399
I28
aI53
aI42
aI2
aI44
aa(lp400
I28
aI53
aI42
aI2
aI44
aa(lp401
I28
aI53
aI42
aI2
aI44
aa(lp402
I13
aI9
aa(lp403
I13
aI9
aa(lp404
I41
aI3
aI26
aI1
aI8
aa(lp405
I54
aI1
aI23
aa(lp406
I41
aI1
aI8
aa(lp407
I28
aI6
aI53
aI44
aa(lp408
I13
aI9
aa(lp409
I17
aI13
aI9
aa(lp410
I17
aI13
aI9
aa(lp411
I17
aI13
aI9
aa(lp412
I6
aI12
aa(lp413
I17
aI13
aI9
aa(lp414
I6
aI7
aI11
aI19
aa(lp415
I7
aI11
aI17
aI16
aI19
aa(lp416
I7
aI11
aI17
aI16
aI19
aa(lp417
I17
aI13
aI9
aa(lp418
I20
aI5
aI0
aa(lp419
I14
aI41
aI26
aI1
aa(lp420
I4
aI5
aI0
aI2
aa(lp421
I17
aI13
aI9
aa(lp422
I55
aI49
aa(lp423
I6
aI15
aI17
aa(lp424
I13
aI9
aa(lp425
I17
aI13
aI9
aa(lp426
I17
aI13
aI9
aa(lp427
I13
aI9
aa(lp428
I13
aI9
aa(lp429
I27
aI34
aa(lp430
I6
aI1
aI8
aa(lp431
I17
aI0
aa(lp432
I0
aI8
aa(lp433
I20
aI5
aI0
aI2
aa(lp434
I14
aI41
aI1
aa(lp435
I41
aI1
aa(lp436
I41
aI1
aa(lp437
I55
aI49
aa(lp438
I6
aI13
aa(lp439
I17
aI39
aI0
aa(lp440
I4
aI2
aa(lp441
I10
aI32
aI38
aa(lp442
I4
aI20
aI5
aI0
aa(lp443
I41
aI1
aa(lp444
I41
aI50
aI1
aI23
aa(lp445
I41
aI50
aI1
aI23
aa(lp446
I41
aI50
aI1
aI23
aa(lp447
I41
aI50
aI1
aa(lp448
I14
aI4
aI2
aa(lp449
I0
aI12
aa(lp450
I14
aI8
aa(lp451
I33
aI41
aI1
aa(lp452
I14
aI10
aI4
aI32
aa(lp453
I6
aI41
aI1
aa(lp454
I14
aI41
aI0
aI1
aa(lp455
I20
aI5
aI0
aa(lp456
I14
aI16
aI27
aI0
aa(lp457
I0
aI12
aa(lp458
I14
aI10
aI4
aI2
aa(lp459
I0
aI1
aa(lp460
I4
aI20
aI16
aI5
aI31
aa(lp461
I13
aI9
aa(lp462
I33
aI41
aI1
aI23
aa(lp463
I17
aI39
aI2
aI12
aa(lp464
I41
aI0
aI25
aI1
aI8
aa(lp465
I41
aI1
aa(lp466
I18
aI10
aI41
aI1
aI23
aa(lp467
I14
aI4
aI20
aI31
aI0
aa(lp468
I14
aI4
aI20
aI31
aI0
aa(lp469
I14
aI3
aI1
aI23
aa(lp470
I3
aI1
aI23
aa(lp471
I4
aI6
aI5
aa(lp472
I6
aI7
aI11
aI16
aI19
aa(lp473
I20
aI5
aa(lp474
I33
aI41
aI0
aI1
aa(lp475
I0
aI30
aI12
aa(lp476
I28
aI16
aI0
aa(lp477
I4
aI20
aI8
aa(lp478
I41
aI50
aI0
aI1
aI8
aa(lp479
I6
aI7
aI16
aI19
aa(lp480
I4
aI20
aI5
aI31
aI0
aI2
aa(lp481
I10
aI41
aI0
aI1
aa(lp482
I16
aI0
aa(lp483
I0
aI1
aa(lp484
I14
aI4
aI20
aI5
aI0
aa(lp485
I4
aI20
aI5
aa(lp486
I41
aI1
aa(lp487
I41
aI1
aa(lp488
I10
aI45
aI8
aa(lp489
I1
aI56
aa(lp490
I41
aI0
aI1
aI30
aI23
aa(lp491
I41
aI1
aI2
aa(lp492
I54
aI26
aI8
aa(lp493
I4
aI20
aI5
aI31
aI2
aa(lp494
I4
aI20
aI5
aI31
aa(lp495
I6
aI7
aI11
aI16
aI19
aa(lp496
I6
aI41
aI3
aI1
aa(lp497
I15
aI17
aI0
aa(lp498
I5
aI0
aa(lp499
I4
aI20
aI5
aI31
aI0
aI2
aa(lp500
I18
aI25
aI1
aI8
aa(lp501
I10
aI32
aa(lp502
I25
aI8
aa(lp503
I17
aI16
aa(lp504
I33
aI1
aI56
aa(lp505
I29
aI13
aI1
aa(lp506
I3
aI1
aI56
aa(lp507
I3
aI1
aI56
aa(lp508
I10
aI32
aI16
aa(lp509
I41
aI17
aI0
aI1
aI2
aI8
aa(lp510
I10
aI32
aI0
aI12
aa(lp511
I6
aI15
aa(lp512
I10
aI4
aI5
aI0
aI2
aa(lp513
I2
aI8
aa(lp514
I6
aI7
aI11
aI17
aI16
aI19
aa(lp515
I6
aI7
aI11
aI17
aI16
aI19
aa(lp516
I6
aI7
aI11
aI17
aI16
aI19
aa(lp517
I6
aI7
aI11
aI17
aI16
aI19
aa(lp518
I6
aI7
aI11
aI17
aI16
aI19
aa(lp519
I6
aI15
aI17
aI47
aa(lp520
I6
aI13
aI9
aa(lp521
I13
aI9
aI8
aa(lp522
I54
aI26
aa(lp523
I6
aI7
aI16
aI19
aa(lp524
I14
aI4
aI20
aa(lp525
I4
aI20
aI5
aI31
aI0
aI2
aa(lp526
I6
aI41
aa(lp527
I1
aI56
aa(lp528
I14
aI10
aI41
aI0
aI1
aa(lp529
I10
aI4
aI20
aI5
aI31
aI0
aI2
aa(lp530
I10
aI32
aa(lp531
I28
aI16
aa(lp532
I4
aI20
aI5
aI31
aI0
aI2
aa(lp533
I33
aI41
aI1
aa(lp534
I10
aI6
aI32
aa(lp535
I4
aI20
aI5
aI31
aI0
aI2
aa(lp536
I6
aI15
aI17
aa(lp537
I18
aI6
aI41
aI1
aI23
aa(lp538
I14
aI50
aI22
aI0
aa(lp539
I4
aI20
aI31
aI0
aa(lp540
I10
aI4
aI20
aI5
aI31
aI0
aI2
aa(lp541
I14
aI10
aI4
aI32
aa(lp542
I6
aI7
aI11
aI16
aa(lp543
I41
aI0
aI1
aa(lp544
I41
aI1
aI23
aI8
aa(lp545
I18
aI33
aI41
aI26
aI1
aI8
aa(lp546
I6
aI7
aI11
aI16
aa(lp547
I7
aI11
aI16
aa(lp548
I10
aI0
aI12
aa(lp549
I4
aI6
aI20
aI2
aa(lp550
I6
aI7
aI17
aI16
aI19
aa(lp551
I6
aI7
aI11
aI16
aI19
aa(lp552
I6
aI7
aI11
aI17
aI16
aI19
aa(lp553
I1
aI23
aa(lp554
I28
aI16
aa(lp555
I6
aI7
aI11
aI17
aI16
aI19
aa(lp556
I6
aI41
aI3
aI1
aa(lp557
I14
aI0
aa(lp558
I10
aI32
aI17
aI39
aa(lp559
I10
aI6
aa(lp560
I6
aI7
aI11
aI19
aa(lp561
I6
aI7
aI11
aI17
aI16
aI19
aa(lp562
I10
aI13
aI9
aa(lp563
I22
aI13
aa(lp564
I9
aI8
aa(lp565
I16
aI0
aa(lp566
I10
aI41
aI3
aI1
aI23
aa(lp567
I15
aI46
aI17
aI47
aa(lp568
I48
aI26
aa(lp569
I6
aI7
aI11
aI16
aa(lp570
I14
aI0
aa(lp571
I14
aI6
aI16
aI0
aa(lp572
I14
aI6
aI12
aa(lp573
I10
aI32
aI38
aa(lp574
I4
aI20
aI31
aa(lp575
I4
aI5
aI0
aa(lp576
I6
aI41
aI0
aI1
aI23
aa(lp577
I15
aI46
aI17
aI47
aa(lp578
I15
aI46
aI17
aI47
aa(lp579
I15
aI46
aI17
aI47
aa(lp580
I6
aI7
aI11
aI19
aa(lp581
I41
aI0
aI1
aa(lp582
I18
aI10
aI41
aI0
aI25
aI1
aI8
aa(lp583
I17
aI39
aI0
aa(lp584
I4
aI20
aI5
aI31
aa(lp585
I48
aI26
aa(lp586
I41
aI0
aI1
aa(lp587
I27
aI34
aa(lp588
I27
aI34
aa(lp589
I27
aI34
aa(lp590
I27
aI34
aa(lp591
I27
aI34
aa(lp592
I27
aI34
aa(lp593
I4
aI5
aa(lp594
I6
aI22
aa(lp595
I6
aI7
aI11
aI16
aI19
aa(lp596
I33
aI41
aI0
aI1
aI56
aa(lp597
I6
aI7
aa(lp598
I41
aI1
aa(lp599
I7
aI11
aI16
aa(lp600
I6
aI7
aI11
aI16
aI19
aa(lp601
I18
aI10
aI41
aI0
aI25
aI1
aI8
aa(lp602
I6
aI15
aa(lp603
I41
aI1
aa(lp604
I18
aI10
aI41
aI0
aI25
aI1
aI8
aa(lp605
I18
aI10
aI41
aI0
aI25
aI1
aI8
aa(lp606
I18
aI10
aI41
aI0
aI25
aI1
aI8
aa(lp607
I6
aI41
aI0
aI1
aa(lp608
I17
aI39
aa(lp609
I50
aI1
aa(lp610
I48
aI26
aa(lp611
I14
aI0
aa(lp612
I6
aI15
aa(lp613
I6
aI16
aa(lp614
I6
aI15
aI17
aa.