(lp0
(lp1
I34
aI10
aI17
aI6
aI0
aa(lp2
I1
aI59
aa(lp3
I10
aI0
aI20
aa(lp4
I42
aI1
aa(lp5
I0
aI2
aI12
aa(lp6
I0
aI12
aa(lp7
I2
aI12
aa(lp8
I2
aI12
aa(lp9
I2
aI12
aa(lp10
I5
aI2
aI12
aa(lp11
I37
aI46
aI21
aI13
aa(lp12
I37
aI46
aI21
aI13
aa(lp13
I34
aI10
aI4
aI6
aI2
aa(lp14
I10
aI12
aa(lp15
I34
aI10
aI4
aI6
aI0
aI2
aa(lp16
I17
aI13
aI9
aa(lp17
I17
aI13
aI9
aa(lp18
I3
aI1
aI59
aa(lp19
I42
aI3
aI1
aI2
aa(lp20
I24
aI50
aI42
aI1
aa(lp21
I34
aI4
aI19
aI6
aI31
aI0
aI2
aa(lp22
I27
aI35
aa(lp23
I1
aI38
aa(lp24
I0
aI20
aa(lp25
I27
aI35
aa(lp26
I14
aI41
aI44
aa(lp27
I42
aI1
aI22
aa(lp28
I1
aI38
aa(lp29
I5
aI54
aa(lp30
I34
aI5
aI7
aI11
aI17
aI16
aI18
aa(lp31
I34
aI5
aI7
aI11
aI17
aI16
aI18
aa(lp32
I10
aI21
aa(lp33
I15
aI47
aI17
aa(lp34
I14
aI0
aI44
aa(lp35
I13
aI9
aa(lp36
I49
aI12
aa(lp37
I14
aI42
aI55
aI0
aI1
aa(lp38
I42
aI3
aI0
aI1
aa(lp39
I34
aI4
aI19
aI6
aI31
aI0
aI2
aa(lp40
I15
aI17
aI48
aa(lp41
I50
aI42
aI26
aI1
aa(lp42
I1
aI38
aa(lp43
I42
aI1
aa(lp44
I29
aI1
aa(lp45
I0
aI2
aa(lp46
I10
aI21
aa(lp47
I24
aI50
aI42
aI1
aa(lp48
I1
aI38
aa(lp49
I13
aI9
aa(lp50
I34
aI19
aI31
aI0
aI2
aa(lp51
I1
aI38
aa(lp52
I50
aI42
aI55
aI0
aI1
aa(lp53
I14
aI10
aI42
aI55
aI0
aI1
aa(lp54
I1
aI38
aa(lp55
I10
aI33
aI50
aI42
aI0
aI1
aa(lp56
I42
aI0
aI1
aa(lp57
I1
aI38
aa(lp58
I42
aI0
aI1
aI38
aa(lp59
I42
aI3
aI1
aa(lp60
I5
aI1
aI38
aa(lp61
I14
aI41
aa(lp62
I42
aI3
aI0
aI1
aI38
aa(lp63
I42
aI0
aI1
aI22
aa(lp64
I14
aI41
aI44
aa(lp65
I10
aI12
aa(lp66
I13
aI9
aa(lp67
I5
aI15
aa(lp68
I13
aI9
aa(lp69
I34
aI19
aa(lp70
I0
aI20
aa(lp71
I34
aI4
aI19
aI6
aI2
aa(lp72
I42
aI3
aI1
aI38
aa(lp73
I5
aI1
aa(lp74
I5
aI50
aI1
aa(lp75
I34
aI5
aI7
aI11
aa(lp76
I34
aI4
aI6
aI0
aI2
aa(lp77
I50
aI42
aI0
aI1
aa(lp78
I5
aI58
aI51
aa(lp79
I17
aI13
aI9
aa(lp80
I1
aI38
aa(lp81
I0
aI20
aa(lp82
I5
aI12
aa(lp83
I42
aI55
aI3
aI0
aI1
aI22
aa(lp84
I5
aI29
aa(lp85
I29
aI0
aI1
aI12
aa(lp86
I1
aI38
aa(lp87
I1
aI38
aa(lp88
I14
aI42
aI55
aI3
aI1
aI22
aa(lp89
I1
aI38
aa(lp90
I10
aI26
aI0
aa(lp91
I33
aI42
aI0
aI1
aa(lp92
I42
aI3
aI1
aI22
aa(lp93
I42
aI1
aI38
aa(lp94
I28
aI0
aa(lp95
I13
aI9
aa(lp96
I13
aI9
aa(lp97
I13
aI9
aa(lp98
I13
aI9
aa(lp99
I13
aI9
aa(lp100
I13
aI9
aa(lp101
I13
aI9
aa(lp102
I13
aI9
aa(lp103
I0
aI39
aa(lp104
I24
aI50
aI42
aI26
aI0
aI25
aI1
aI8
aa(lp105
I10
aI32
aI0
aa(lp106
I14
aI41
aI0
aI44
aa(lp107
I14
aI41
aI0
aI44
aa(lp108
I36
aI8
aa(lp109
I27
aI0
aa(lp110
I15
aI47
aI17
aI48
aa(lp111
I42
aI0
aI25
aI1
aI8
aa(lp112
I0
aI13
aI9
aa(lp113
I5
aI15
aI0
aa(lp114
I1
aI38
aa(lp115
I42
aI3
aI1
aa(lp116
I58
aI51
aI30
aa(lp117
I57
aI0
aI1
aI38
aa(lp118
I42
aI1
aa(lp119
I34
aI5
aI7
aI11
aa(lp120
I5
aI0
aI2
aa(lp121
I53
aI0
aI20
aa(lp122
I53
aI0
aI20
aa(lp123
I10
aI0
aI20
aa(lp124
I10
aI0
aI20
aa(lp125
I10
aI0
aI20
aa(lp126
I42
aI0
aI1
aI30
aI22
aa(lp127
I34
aI4
aI29
aI19
aI0
aa(lp128
I37
aI46
aI21
aI13
aa(lp129
I14
aI0
aI44
aa(lp130
I42
aI1
aa(lp131
I14
aI10
aI0
aI44
aa(lp132
I15
aI17
aI48
aa(lp133
I34
aI4
aI0
aI2
aa(lp134
I14
aI0
aI44
aa(lp135
I14
aI10
aI0
aI44
aa(lp136
I14
aI42
aI0
aI1
aa(lp137
I42
aI1
aa(lp138
I53
aI42
aI1
aa(lp139
I53
aI42
aI1
aa(lp140
I14
aI5
aI0
aI44
aa(lp141
I29
aI2
aa(lp142
I34
aI4
aI5
aI19
aI6
aI0
aa(lp143
I4
aI29
aI2
aI12
aa(lp144
I5
aI15
aI0
aa(lp145
I34
aI7
aI11
aI18
aa(lp146
I17
aI40
aa(lp147
I5
aI0
aa(lp148
I42
aI1
aa(lp149
I24
aI50
aI42
aI26
aI25
aI1
aI8
aa(lp150
I42
aI1
aa(lp151
I42
aI55
aI1
aa(lp152
I13
aI9
aa(lp153
I4
aI5
aI12
aa(lp154
I42
aI1
aa(lp155
I42
aI26
aI1
aI22
aI8
aa(lp156
I14
aI41
aI44
aa(lp157
I36
aI8
aa(lp158
I14
aI41
aI44
aa(lp159
I17
aI48
aa(lp160
I21
aI0
aa(lp161
I29
aI0
aI12
aa(lp162
I54
aI2
aI12
aa(lp163
I29
aI0
aI12
aa(lp164
I5
aI0
aI25
aI1
aI8
aa(lp165
I2
aI12
aI8
aa(lp166
I14
aI34
aI4
aI19
aI6
aI31
aa(lp167
I27
aI35
aa(lp168
I3
aI0
aI25
aI1
aa(lp169
I29
aI0
aI12
aa(lp170
I29
aI0
aI12
aa(lp171
I29
aI0
aI12
aa(lp172
I4
aI12
aa(lp173
I34
aI7
aI11
aI16
aa(lp174
I50
aI42
aa(lp175
I10
aI0
aI20
aa(lp176
I34
aI10
aI4
aI17
aI40
aI19
aI31
aI2
aa(lp177
I34
aI4
aI5
aI6
aI0
aa(lp178
I5
aI54
aa(lp179
I5
aI29
aI0
aI12
aa(lp180
I4
aI26
aI1
aa(lp181
I10
aI0
aI20
aa(lp182
I0
aI20
aa(lp183
I53
aI0
aI20
aa(lp184
I53
aI0
aI20
aa(lp185
I29
aI0
aI12
aa(lp186
I54
aI2
aI12
aa(lp187
I49
aI4
aI19
aa(lp188
I10
aI0
aI20
aa(lp189
I10
aI0
aI20
aa(lp190
I17
aI40
aI13
aa(lp191
I14
aI5
aI21
aa(lp192
I14
aI41
aa(lp193
I5
aI42
aI55
aI1
aI22
aa(lp194
I5
aI42
aI55
aI3
aI0
aI1
aI22
aa(lp195
I36
aI8
aa(lp196
I37
aI46
aI21
aI13
aa(lp197
I10
aI50
aI42
aI0
aI1
aa(lp198
I37
aI46
aI21
aI13
aa(lp199
I37
aI46
aI21
aI13
aa(lp200
I37
aI46
aI21
aI13
aa(lp201
I58
aI51
aa(lp202
I13
aI9
aa(lp203
I37
aI53
aI46
aI21
aI13
aa(lp204
I37
aI53
aI46
aI21
aI13
aa(lp205
I42
aI1
aa(lp206
I37
aI46
aI21
aI13
aa(lp207
I50
aI42
aI25
aI1
aI8
aa(lp208
I37
aI46
aI21
aI13
aa(lp209
I37
aI46
aI21
aI13
aa(lp210
I37
aI46
aI21
aI13
aa(lp211
I42
aI1
aa(lp212
I14
aI10
aI41
aI44
aa(lp213
I0
aI12
aa(lp214
I34
aI4
aI6
aI2
aa(lp215
I34
aI4
aI19
aI6
aI31
aI0
aa(lp216
I42
aI55
aI1
aa(lp217
I42
aI55
aI1
aa(lp218
I14
aI41
aI44
aa(lp219
I49
aI0
aI20
aa(lp220
I34
aI7
aI11
aI18
aa(lp221
I4
aI5
aI12
aa(lp222
I14
aI41
aI0
aI44
aa(lp223
I16
aI0
aa(lp224
I15
aI17
aI48
aa(lp225
I49
aI10
aI36
aI8
aa(lp226
I5
aI50
aI42
aI52
aI1
aa(lp227
I49
aI45
aa(lp228
I5
aI0
aa(lp229
I49
aI36
aI8
aa(lp230
I49
aI36
aI8
aa(lp231
I3
aI1
aa(lp232
I34
aI10
aI4
aI6
aI0
aI2
aa(lp233
I57
aI0
aI1
aa(lp234
I34
aI29
aI19
aI31
aa(lp235
I3
aI1
aa(lp236
I5
aI15
aI0
aa(lp237
I28
aI56
aI43
aI2
aI45
aa(lp238
I5
aI15
aI17
aI0
aa(lp239
I5
aI15
aI17
aI0
aa(lp240
I4
aI29
aa(lp241
I49
aI36
aI8
aa(lp242
I34
aI6
aI2
aa(lp243
I34
aI5
aI7
aI11
aI18
aa(lp244
I5
aI15
aa(lp245
I49
aI10
aI36
aI8
aa(lp246
I49
aI36
aI8
aa(lp247
I42
aI57
aI26
aI1
aa(lp248
I34
aI10
aI4
aI5
aa(lp249
I42
aI0
aI1
aI30
aI22
aa(lp250
I14
aI34
aI4
aI6
aI2
aa(lp251
I5
aI15
aa(lp252
I10
aI17
aI40
aI2
aa(lp253
I14
aI41
aa(lp254
I5
aI42
aI1
aa(lp255
I10
aI45
aa(lp256
I58
aI51
aa(lp257
I5
aI36
aa(lp258
I14
aI34
aI4
aI6
aI2
aa(lp259
I14
aI34
aI4
aI6
aI2
aa(lp260
I0
aI18
aa(lp261
I4
aI19
aa(lp262
I42
aI55
aI0
aI1
aI22
aa(lp263
I5
aI55
aa(lp264
I52
aI18
aa(lp265
I34
aI4
aI6
aa(lp266
I42
aI52
aI1
aa(lp267
I42
aI3
aI1
aa(lp268
I34
aI7
aI11
aI16
aa(lp269
I15
aI17
aI40
aa(lp270
I34
aI4
aI19
aI6
aa(lp271
I37
aI46
aI21
aI13
aa(lp272
I29
aI12
aa(lp273
I3
aI1
aa(lp274
I10
aI42
aI0
aI1
aa(lp275
I5
aI21
aa(lp276
I52
aI25
aI44
aI8
aa(lp277
I5
aI15
aa(lp278
I13
aI9
aa(lp279
I17
aI40
aa(lp280
I28
aI16
aI36
aI21
aI0
aa(lp281
I14
aI42
aI25
aI1
aI8
aa(lp282
I5
aI15
aI0
aa(lp283
I42
aI22
aa(lp284
I5
aI29
aa(lp285
I5
aI15
aI17
aI48
aa(lp286
I13
aI9
aa(lp287
I34
aI4
aI29
aI19
aI6
aa(lp288
I13
aI9
aa(lp289
I5
aI42
aI1
aI2
aI22
aa(lp290
I42
aI26
aI0
aI25
aI1
aI8
aa(lp291
I50
aI42
aI3
aI0
aI1
aa(lp292
I42
aI26
aI0
aI25
aI1
aI8
aa(lp293
I5
aI0
aI12
aa(lp294
I42
aI1
aI2
aI8
aa(lp295
I42
aI3
aI1
aI22
aI8
aa(lp296
I0
aI12
aa(lp297
I42
aI26
aI0
aI1
aa(lp298
I4
aI2
aa(lp299
I42
aI1
aI22
aa(lp300
I17
aI13
aI9
aa(lp301
I15
aI47
aI17
aI48
aa(lp302
I34
aI4
aI6
aI0
aI2
aa(lp303
I33
aI42
aI1
aa(lp304
I34
aI10
aI4
aI6
aI0
aI2
aa(lp305
I34
aI10
aI4
aI6
aI0
aI2
aa(lp306
I34
aI10
aI4
aI6
aI0
aI2
aa(lp307
I28
aI0
aI2
aa(lp308
I34
aI4
aI19
aI6
aI31
aa(lp309
I34
aI10
aI7
aI18
aa(lp310
I28
aI2
aa(lp311
I42
aI3
aI1
aI2
aa(lp312
I10
aI32
aa(lp313
I17
aI40
aa(lp314
I42
aI1
aI22
aI8
aa(lp315
I42
aI52
aI1
aa(lp316
I5
aI15
aa(lp317
I5
aI15
aa(lp318
I5
aI15
aa(lp319
I5
aI15
aa(lp320
I34
aI10
aI4
aI6
aI2
aa(lp321
I34
aI10
aI4
aI32
aI6
aI2
aa(lp322
I10
aI19
aa(lp323
I34
aI10
aI4
aI6
aI0
aI2
aa(lp324
I34
aI4
aI6
aa(lp325
I27
aI35
aa(lp326
I5
aI1
aa(lp327
I5
aI15
aI17
aI0
aa(lp328
I5
aI15
aI17
aI0
aa(lp329
I5
aI15
aI17
aI0
aa(lp330
I0
aI20
aa(lp331
I10
aI0
aI20
aa(lp332
I34
aI18
aa(lp333
I1
aI8
aa(lp334
I5
aI37
aI13
aI9
aa(lp335
I5
aI15
aI17
aa(lp336
I10
aI20
aa(lp337
I10
aI0
aI20
aa(lp338
I10
aI0
aI20
aa(lp339
I10
aI0
aI20
aa(lp340
I10
aI0
aI20
aa(lp341
I42
aI0
aI1
aI30
aI22
aa(lp342
I34
aI19
aI6
aI0
aa(lp343
I13
aI9
aa(lp344
I33
aI42
aI1
aa(lp345
I42
aI1
aa(lp346
I34
aI7
aI11
aI16
aI18
aa(lp347
I10
aI32
aI0
aI12
aa(lp348
I27
aI35
aa(lp349
I24
aI50
aI42
aI3
aI0
aI25
aI1
aI8
aa(lp350
I34
aI5
aI7
aa(lp351
I34
aI4
aI19
aI6
aI0
aI2
aa(lp352
I10
aI27
aI35
aa(lp353
I37
aI9
aa(lp354
I33
aI42
aI1
aa(lp355
I5
aI29
aa(lp356
I42
aI0
aI1
aa(lp357
I10
aI33
aI42
aI1
aa(lp358
I42
aI1
aa(lp359
I5
aI0
aa(lp360
I5
aI15
aI17
aa(lp361
I34
aI7
aI11
aI16
aI18
aa(lp362
I34
aI4
aI19
aI6
aI31
aI0
aI2
aa(lp363
I27
aI35
aa(lp364
I28
aI0
aa(lp365
I34
aI19
aI16
aI6
aI0
aa(lp366
I0
aI25
aI8
aa(lp367
I34
aI10
aI4
aI6
aI0
aI2
aa(lp368
I17
aI40
aI21
aa(lp369
I0
aI39
aa(lp370
I34
aI4
aI6
aI0
aI2
aa(lp371
I33
aI42
aI1
aa(lp372
I34
aI10
aI4
aI6
aI0
aI2
aa(lp373
I34
aI10
aI4
aI6
aI0
aI2
aa(lp374
I34
aI10
aI4
aI6
aI0
aI2
aa(lp375
I34
aI10
aI4
aI6
aI0
aI2
aa(lp376
I5
aI15
aI43
aI42
aI1
aa(lp377
I34
aI7
aI11
aa(lp378
I10
aI32
aI39
aa(lp379
I3
aI1
aa(lp380
I57
aI1
aI22
aa(lp381
I34
aI4
aa(lp382
I34
aI19
aI6
aI31
aa(lp383
I10
aI15
aa(lp384
I5
aI15
aa(lp385
I34
aI5
aI7
aI11
aI16
aa(lp386
I34
aI5
aI7
aI11
aI16
aa(lp387
I28
aI56
aI43
aI2
aI45
aa(lp388
I24
aI50
aI42
aI0
aI1
aI22
aa(lp389
I0
aI12
aa(lp390
I1
aI59
aa(lp391
I34
aI5
aI7
aI11
aI16
aI18
aa(lp392
I15
aI47
aI17
aI48
aa(lp393
I42
aI1
aa(lp394
I15
aI17
aI48
aI0
aa(lp395
I42
aI1
aI2
aa(lp396
I27
aI35
aa(lp397
I42
aI0
aI25
aI1
aI8
aa(lp398
I28
aI56
aI43
aI2
aI45
aa(lp399
I42
aI1
aI22
aa(lp400
I58
aI51
aa(lp401
I42
aI1
aI12
aI35
aa(lp402
I13
aI9
aa(lp403
I28
aI56
aI43
aI2
aI45
aa(lp404
I28
aI56
aI43
aI2
aI45
aa(lp405
I28
aI56
aI43
aI2
aI45
aa(lp406
I13
aI9
aa(lp407
I13
aI9
aa(lp408
I50
aI42
aI3
aI26
aI1
aI8
aa(lp409
I57
aI1
aI22
aa(lp410
I42
aI1
aI8
aa(lp411
I28
aI5
aI56
aI45
aa(lp412
I13
aI9
aa(lp413
I17
aI13
aI9
aa(lp414
I17
aI13
aI9
aa(lp415
I17
aI13
aI9
aa(lp416
I5
aI12
aa(lp417
I17
aI13
aI9
aa(lp418
I34
aI5
aI7
aI11
aI18
aa(lp419
I34
aI7
aI11
aI17
aI16
aI18
aa(lp420
I34
aI7
aI11
aI17
aI16
aI18
aa(lp421
I17
aI13
aI9
aa(lp422
I34
aI19
aI6
aI0
aa(lp423
I14
aI42
aI26
aI1
aa(lp424
I34
aI4
aI6
aI0
aI2
aa(lp425
I17
aI13
aI9
aa(lp426
I58
aI51
aa(lp427
I5
aI15
aI17
aa(lp428
I13
aI9
aa(lp429
I17
aI13
aI9
aa(lp430
I17
aI13
aI9
aa(lp431
I13
aI9
aa(lp432
I13
aI9
aa(lp433
I27
aI35
aa(lp434
I5
aI1
aI8
aa(lp435
I17
aI0
aa(lp436
I0
aI8
aa(lp437
I34
aI19
aI6
aI0
aI2
aa(lp438
I14
aI42
aI1
aa(lp439
I42
aI1
aa(lp440
I42
aI1
aa(lp441
I58
aI51
aa(lp442
I5
aI13
aa(lp443
I17
aI40
aI0
aa(lp444
I4
aI2
aa(lp445
I10
aI32
aI39
aa(lp446
I34
aI4
aI19
aI6
aI0
aa(lp447
I42
aI1
aa(lp448
I42
aI52
aI1
aI22
aa(lp449
I42
aI52
aI1
aI22
aa(lp450
I42
aI52
aI1
aI22
aa(lp451
I42
aI52
aI1
aa(lp452
I14
aI4
aI2
aa(lp453
I0
aI12
aa(lp454
I14
aI8
aa(lp455
I33
aI42
aI1
aa(lp456
I14
aI10
aI4
aI32
aa(lp457
I5
aI42
aI1
aa(lp458
I14
aI42
aI0
aI1
aa(lp459
I34
aI19
aI6
aI0
aa(lp460
I14
aI16
aI27
aI0
aa(lp461
I0
aI12
aa(lp462
I14
aI10
aI4
aI2
aa(lp463
I0
aI1
aa(lp464
I34
aI4
aI19
aI16
aI6
aI31
aa(lp465
I13
aI9
aa(lp466
I33
aI42
aI1
aI22
aa(lp467
I17
aI40
aI2
aI12
aa(lp468
I34
aI7
aa(lp469
I50
aI42
aI0
aI25
aI1
aI8
aa(lp470
I42
aI1
aa(lp471
I24
aI10
aI50
aI42
aI1
aI22
aa(lp472
I14
aI34
aI4
aI19
aI31
aI0
aa(lp473
I14
aI34
aI4
aI19
aI31
aI0
aa(lp474
I14
aI3
aI1
aI22
aa(lp475
I3
aI1
aI22
aa(lp476
I34
aI4
aI5
aI6
aa(lp477
I34
aI5
aI7
aI11
aI16
aI18
aa(lp478
I34
aI19
aI6
aa(lp479
I33
aI50
aI42
aI0
aI1
aa(lp480
I0
aI30
aI12
aa(lp481
I28
aI16
aI0
aa(lp482
I4
aI19
aI8
aa(lp483
I42
aI52
aI0
aI1
aI8
aa(lp484
I34
aI5
aI7
aI16
aI18
aa(lp485
I34
aI4
aI19
aI6
aI31
aI0
aI2
aa(lp486
I10
aI42
aI0
aI1
aa(lp487
I16
aI0
aa(lp488
I0
aI1
aa(lp489
I14
aI34
aI4
aI19
aI6
aI0
aa(lp490
I34
aI4
aI19
aI6
aa(lp491
I42
aI1
aa(lp492
I42
aI1
aa(lp493
I10
aI46
aI8
aa(lp494
I1
aI59
aa(lp495
I42
aI0
aI1
aI30
aI22
aa(lp496
I42
aI1
aI2
aa(lp497
I57
aI26
aI8
aa(lp498
I34
aI4
aI19
aI6
aI31
aI2
aa(lp499
I34
aI4
aI19
aI6
aI31
aa(lp500
I34
aI5
aI7
aI11
aI16
aI18
aa(lp501
I5
aI42
aI3
aI1
aa(lp502
I15
aI17
aI0
aa(lp503
I34
aI6
aI0
aa(lp504
I34
aI4
aI19
aI6
aI31
aI0
aI2
aa(lp505
I24
aI50
aI25
aI1
aI8
aa(lp506
I10
aI32
aa(lp507
I25
aI8
aa(lp508
I17
aI16
aa(lp509
I33
aI1
aI59
aa(lp510
I29
aI13
aI1
aa(lp511
I3
aI1
aI59
aa(lp512
I3
aI1
aI59
aa(lp513
I10
aI32
aI16
aa(lp514
I42
aI17
aI0
aI1
aI2
aI8
aa(lp515
I10
aI32
aI0
aI12
aa(lp516
I5
aI15
aa(lp517
I34
aI10
aI4
aI6
aI0
aI2
aa(lp518
I2
aI8
aa(lp519
I34
aI5
aI7
aI11
aI17
aI16
aI18
aa(lp520
I34
aI5
aI7
aI11
aI17
aI16
aI18
aa(lp521
I34
aI5
aI7
aI11
aI17
aI16
aI18
aa(lp522
I34
aI5
aI7
aI11
aI17
aI16
aI18
aa(lp523
I34
aI5
aI7
aI11
aI17
aI16
aI18
aa(lp524
I5
aI15
aI17
aI48
aa(lp525
I5
aI13
aI9
aa(lp526
I13
aI9
aI8
aa(lp527
I57
aI26
aa(lp528
I34
aI5
aI7
aI16
aI18
aa(lp529
I14
aI34
aI4
aI19
aa(lp530
I34
aI4
aI19
aI6
aI31
aI0
aI2
aa(lp531
I34
aI5
aI42
aa(lp532
I1
aI59
aa(lp533
I14
aI10
aI42
aI0
aI1
aa(lp534
I34
aI10
aI4
aI19
aI6
aI31
aI0
aI2
aa(lp535
I10
aI32
aa(lp536
I28
aI16
aa(lp537
I34
aI4
aI19
aI6
aI31
aI0
aI2
aa(lp538
I33
aI42
aI1
aa(lp539
I10
aI5
aI32
aa(lp540
I34
aI4
aI19
aI6
aI31
aI0
aI2
aa(lp541
I5
aI15
aI17
aa(lp542
I24
aI5
aI50
aI42
aI1
aI22
aa(lp543
I14
aI52
aI21
aI0
aa(lp544
I34
aI4
aI19
aI31
aI0
aa(lp545
I34
aI10
aI4
aI19
aI6
aI31
aI0
aI2
aa(lp546
I14
aI10
aI4
aI32
aa(lp547
I34
aI5
aI7
aI11
aI16
aa(lp548
I42
aI0
aI1
aa(lp549
I42
aI1
aI22
aI8
aa(lp550
I24
aI33
aI50
aI42
aI26
aI1
aI8
aa(lp551
I34
aI5
aI7
aI11
aI16
aa(lp552
I34
aI7
aI11
aI16
aa(lp553
I10
aI0
aI12
aa(lp554
I4
aI5
aI19
aI2
aa(lp555
I34
aI5
aI7
aI17
aI16
aI18
aa(lp556
I34
aI5
aI7
aI11
aI16
aI18
aa(lp557
I34
aI5
aI7
aI11
aI17
aI16
aI18
aa(lp558
I1
aI22
aa(lp559
I28
aI16
aa(lp560
I34
aI5
aI7
aI11
aI17
aI16
aI18
aa(lp561
I5
aI42
aI3
aI1
aa(lp562
I14
aI0
aa(lp563
I10
aI32
aI17
aI40
aa(lp564
I10
aI5
aa(lp565
I34
aI5
aI7
aI11
aI18
aa(lp566
I34
aI5
aI7
aI11
aI17
aI16
aI18
aa(lp567
I10
aI13
aI9
aa(lp568
I21
aI13
aa(lp569
I9
aI8
aa(lp570
I16
aI0
aa(lp571
I10
aI42
aI3
aI1
aI22
aa(lp572
I15
aI47
aI17
aI48
aa(lp573
I49
aI26
aa(lp574
I34
aI5
aI7
aI11
aI16
aa(lp575
I14
aI0
aa(lp576
I14
aI5
aI16
aI0
aa(lp577
I14
aI5
aI12
aa(lp578
I10
aI32
aI39
aa(lp579
I34
aI4
aI19
aI31
aa(lp580
I34
aI4
aI6
aI0
aa(lp581
I5
aI42
aI0
aI1
aI22
aa(lp582
I15
aI47
aI17
aI48
aa(lp583
I15
aI47
aI17
aI48
aa(lp584
I15
aI47
aI17
aI48
aa(lp585
I34
aI5
aI7
aI11
aI18
aa(lp586
I42
aI0
aI1
aa(lp587
I24
aI10
aI50
aI42
aI0
aI25
aI1
aI8
aa(lp588
I17
aI40
aI0
aa(lp589
I34
aI4
aI19
aI6
aI31
aa(lp590
I49
aI26
aa(lp591
I42
aI0
aI1
aa(lp592
I27
aI35
aa(lp593
I27
aI35
aa(lp594
I27
aI35
aa(lp595
I27
aI35
aa(lp596
I27
aI35
aa(lp597
I27
aI35
aa(lp598
I34
aI4
aI6
aa(lp599
I5
aI21
aa(lp600
I34
aI5
aI7
aI11
aI16
aI18
aa(lp601
I33
aI42
aI0
aI1
aI59
aa(lp602
I34
aI5
aI7
aa(lp603
I42
aI1
aa(lp604
I34
aI7
aI11
aI16
aa(lp605
I34
aI5
aI7
aI11
aI16
aI18
aa(lp606
I24
aI10
aI50
aI42
aI0
aI25
aI1
aI8
aa(lp607
I5
aI15
aa(lp608
I42
aI1
aa(lp609
I24
aI10
aI50
aI42
aI0
aI25
aI1
aI8
aa(lp610
I24
aI10
aI50
aI42
aI0
aI25
aI1
aI8
aa(lp611
I24
aI10
aI50
aI42
aI0
aI25
aI1
aI8
aa(lp612
I5
aI42
aI0
aI1
aa(lp613
I17
aI40
aa(lp614
I52
aI1
aa(lp615
I49
aI26
aa(lp616
I14
aI0
aa(lp617
I5
aI15
aa(lp618
I5
aI16
aa(lp619
I5
aI15
aI17
aa.